(lp1
(i__main__
Person
p2
(dp3
S'personId'
p4
ccopy_reg
_reconstructor
p5
(cuuid
UUID
p6
c__builtin__
object
p7
NtRp8
(dp9
S'int'
p10
L50338770494558371863040079682837475868L
sbsS'age'
p11
I21
sS'alive'
p12
I01
sS'parents'
p13
(lp14
sS'partner'
p15
(lp16
sS'attributes'
p17
(dp18
S'health'
p19
I79
ssS'children'
p20
(lp21
sS'happiness'
p22
I70
sba(i__main__
Person
p23
(dp24
g4
g5
(g6
g7
NtRp25
(dp26
g10
L50338770573786534377639372498667106844L
sbsg11
I21
sg12
I01
sg13
(lp27
sg15
(lp28
sg17
(dp29
g19
I94
ssg20
(lp30
sg22
I94
sba(i__main__
Person
p31
(dp32
g4
g5
(g6
g7
NtRp33
(dp34
g10
L50338770653014696893508117459461796380L
sbsg11
I27
sg12
I01
sg13
(lp35
sg15
(lp36
sg17
(dp37
g19
I43
ssg20
(lp38
sg22
I59
sba(i__main__
Person
p39
(dp40
g4
g5
(g6
g7
NtRp41
(dp42
g10
L50338770732242859407733330031242965532L
sbsg11
I26
sg12
I01
sg13
(lp43
sg15
(lp44
sg17
(dp45
g19
I69
ssg20
(lp46
sg22
I63
sba(i__main__
Person
p47
(dp48
g4
g5
(g6
g7
NtRp49
(dp50
g10
L50338770811471021921630624255156220444L
sbsg11
I27
sg12
I01
sg13
(lp51
sg15
(lp52
sg17
(dp53
g19
I90
ssg20
(lp54
sg22
I65
sba(i__main__
Person
p55
(dp56
g4
g5
(g6
g7
NtRp57
(dp58
g10
L50339562696955351991916645923243487772L
sbsg11
I22
sg12
I01
sg13
(lp59
sg15
(lp60
sg17
(dp61
g19
I1
ssg20
(lp62
sg22
I52
sba(i__main__
Person
p63
(dp64
g4
g5
(g6
g7
NtRp65
(dp66
g10
L50339562776183514505346410210840343068L
sbsg11
I28
sg12
I01
sg13
(lp67
sg15
(lp68
sg17
(dp69
g19
I94
ssg20
(lp70
sg22
I78
sba(i__main__
Person
p71
(dp72
g4
g5
(g6
g7
NtRp73
(dp74
g10
L50339562855411677023107792915037483548L
sbsg11
I25
sg12
I01
sg13
(lp75
sg15
(lp76
sg17
(dp77
g19
I24
ssg20
(lp78
sg22
I94
sba(i__main__
Person
p79
(dp80
g4
g5
(g6
g7
NtRp81
(dp82
g10
L50339562934639839536240882577181307420L
sbsg11
I30
sg12
I01
sg13
(lp83
sg15
(lp84
sg17
(dp85
g19
I29
ssg20
(lp86
sg22
I84
sba(i__main__
Person
p87
(dp88
g4
g5
(g6
g7
NtRp89
(dp90
g10
L50339563013868002049228449676365722140L
sbsg11
I21
sg12
I01
sg13
(lp91
sg15
(lp92
sg17
(dp93
g19
I17
ssg20
(lp94
sg22
I59
sba(i__main__
Person
p95
(dp96
g4
g5
(g6
g7
NtRp97
(dp98
g10
L50339563093096164561420849966342533660L
sbsg11
I26
sg12
I01
sg13
(lp99
sg15
(lp100
sg17
(dp101
g19
I88
ssg20
(lp102
sg22
I99
sba(i__main__
Person
p103
(dp104
g4
g5
(g6
g7
NtRp105
(dp106
g10
L50339563172324327078226906599583707676L
sbsg11
I20
sg12
I01
sg13
(lp107
sg15
(lp108
sg17
(dp109
g19
I73
ssg20
(lp110
sg22
I51
sba(i__main__
Person
p111
(dp112
g4
g5
(g6
g7
NtRp113
(dp114
g10
L50339563251552489594244551823058334236L
sbsg11
I21
sg12
I01
sg13
(lp115
sg15
(lp116
sg17
(dp117
g19
I19
ssg20
(lp118
sg22
I79
sba(i__main__
Person
p119
(dp120
g4
g5
(g6
g7
NtRp121
(dp122
g10
L50339563330780652106744885737556603420L
sbsg11
I29
sg12
I01
sg13
(lp123
sg15
(lp124
sg17
(dp125
g19
I71
ssg20
(lp126
sg22
I52
sba(i__main__
Person
p127
(dp128
g4
g5
(g6
g7
NtRp129
(dp130
g10
L50339563410008814618815970312571122204L
sbsg11
I21
sg12
I01
sg13
(lp131
sg15
(lp132
sg17
(dp133
g19
I67
ssg20
(lp134
sg22
I60
sba(i__main__
Person
p135
(dp136
g4
g5
(g6
g7
NtRp137
(dp138
g10
L50339563489236977134649812376253690396L
sbsg11
I25
sg12
I01
sg13
(lp139
sg15
(lp140
sg17
(dp141
g19
I44
ssg20
(lp142
sg22
I82
sba(i__main__
Person
p143
(dp144
g4
g5
(g6
g7
NtRp145
(dp146
g10
L50339563568465139649056576308013232668L
sbsg11
I30
sg12
I01
sg13
(lp147
sg15
(lp148
sg17
(dp149
g19
I26
ssg20
(lp150
sg22
I57
sba(i__main__
Person
p151
(dp152
g4
g5
(g6
g7
NtRp153
(dp154
g10
L50339563647693302163729334092764344860L
sbsg11
I22
sg12
I01
sg13
(lp155
sg15
(lp156
sg17
(dp157
g19
I71
ssg20
(lp158
sg22
I83
sba(i__main__
Person
p159
(dp160
g4
g5
(g6
g7
NtRp161
(dp162
g10
L50339563726921464678310331035107783196L
sbsg11
I19
sg12
I01
sg13
(lp163
sg15
(lp164
sg17
(dp165
g19
I82
ssg20
(lp166
sg22
I94
sba(i__main__
Person
p167
(dp168
g4
g5
(g6
g7
NtRp169
(dp170
g10
L50339563806149627192803226309740786204L
sbsg11
I29
sg12
I01
sg13
(lp171
sg15
(lp172
sg17
(dp173
g19
I89
ssg20
(lp174
sg22
I98
sba(i__main__
Person
p175
(dp176
g4
g5
(g6
g7
NtRp177
(dp178
g10
L50339563885377789707850908763470492188L
sbsg11
I25
sg12
I01
sg13
(lp179
sg15
(lp180
sg17
(dp181
g19
I94
ssg20
(lp182
sg22
I61
sba(i__main__
Person
p183
(dp184
g4
g5
(g6
g7
NtRp185
(dp186
g10
L50339563964605952220254978235933717020L
sbsg11
I23
sg12
I01
sg13
(lp187
sg15
(lp188
sg17
(dp189
g19
I85
ssg20
(lp190
sg22
I83
sba(i__main__
Person
p191
(dp192
g4
g5
(g6
g7
NtRp193
(dp194
g10
L50340355137036819662355053396148941340L
sbsg11
I20
sg12
I01
sg13
(lp195
sg15
(lp196
sg17
(dp197
g19
I58
ssg20
(lp198
sg22
I74
sba(i__main__
Person
p199
(dp200
g4
g5
(g6
g7
NtRp201
(dp202
g10
L50340355216264982176901428916356968988L
sbsg11
I23
sg12
I01
sg13
(lp203
sg15
(lp204
sg17
(dp205
g19
I73
ssg20
(lp206
sg22
I82
sba(i__main__
Person
p207
(dp208
g4
g5
(g6
g7
NtRp209
(dp210
g10
L50340355295493144692009347015102755356L
sbsg11
I26
sg12
I01
sg13
(lp211
sg15
(lp212
sg17
(dp213
g19
I33
ssg20
(lp214
sg22
I99
sba(i__main__
Person
p215
(dp216
g4
g5
(g6
g7
NtRp217
(dp218
g10
L50340355374721307208676355009848865308L
sbsg11
I19
sg12
I01
sg13
(lp219
sg15
(lp220
sg17
(dp221
g19
I73
ssg20
(lp222
sg22
I75
sba(i__main__
Person
p223
(dp224
g4
g5
(g6
g7
NtRp225
(dp226
g10
L50340355453949469723431022012822778396L
sbsg11
I25
sg12
I01
sg13
(lp227
sg15
(lp228
sg17
(dp229
g19
I26
ssg20
(lp230
sg22
I87
sba(i__main__
Person
p231
(dp232
g4
g5
(g6
g7
NtRp233
(dp234
g10
L50340355533177632237162808950430167580L
sbsg11
I18
sg12
I01
sg13
(lp235
sg15
(lp236
sg17
(dp237
g19
I41
ssg20
(lp238
sg22
I87
sba(i__main__
Person
p239
(dp240
g4
g5
(g6
g7
NtRp241
(dp242
g10
L50340355612405794750894314413060846108L
sbsg11
I21
sg12
I01
sg13
(lp243
sg15
(lp244
sg17
(dp245
g19
I51
ssg20
(lp246
sg22
I55
sba(i__main__
Person
p247
(dp248
g4
g5
(g6
g7
NtRp249
(dp250
g10
L50340355691633957263853171064620773916L
sbsg11
I21
sg12
I01
sg13
(lp251
sg15
(lp252
sg17
(dp253
g19
I2
ssg20
(lp254
sg22
I80
sba(i__main__
Person
p255
(dp256
g4
g5
(g6
g7
NtRp257
(dp258
g10
L50340355770862119780302880377346257436L
sbsg11
I26
sg12
I01
sg13
(lp259
sg15
(lp260
sg17
(dp261
g19
I41
ssg20
(lp262
sg22
I63
sba(i__main__
Person
p263
(dp264
g4
g5
(g6
g7
NtRp265
(dp266
g10
L50340355850090282294541885222986248732L
sbsg11
I19
sg12
I01
sg13
(lp267
sg15
(lp268
sg17
(dp269
g19
I25
ssg20
(lp270
sg22
I51
sba(i__main__
Person
p271
(dp272
g4
g5
(g6
g7
NtRp273
(dp274
g10
L50340355929318444807363382085911376412L
sbsg11
I23
sg12
I01
sg13
(lp275
sg15
(lp276
sg17
(dp277
g19
I8
ssg20
(lp278
sg22
I93
sba(i__main__
Person
p279
(dp280
g4
g5
(g6
g7
NtRp281
(dp282
g10
L50340356008546607319542553051982787100L
sbsg11
I26
sg12
I01
sg13
(lp283
sg15
(lp284
sg17
(dp285
g19
I3
ssg20
(lp286
sg22
I57
sba(i__main__
Person
p287
(dp288
g4
g5
(g6
g7
NtRp289
(dp290
g10
L50340356087774769834278642706493796892L
sbsg11
I22
sg12
I01
sg13
(lp291
sg15
(lp292
sg17
(dp293
g19
I19
ssg20
(lp294
sg22
I91
sba(i__main__
Person
p295
(dp296
g4
g5
(g6
g7
NtRp297
(dp298
g10
L50340356167002932350559467033192886812L
sbsg11
I27
sg12
I01
sg13
(lp299
sg15
(lp300
sg17
(dp301
g19
I65
ssg20
(lp302
sg22
I86
sba(i__main__
Person
p303
(dp304
g4
g5
(g6
g7
NtRp305
(dp306
g10
L50340356246231094861693521410737631772L
sbsg11
I22
sg12
I01
sg13
(lp307
sg15
(lp308
sg17
(dp309
g19
I66
ssg20
(lp310
sg22
I78
sba(i__main__
Person
p311
(dp312
g4
g5
(g6
g7
NtRp313
(dp314
g10
L50340356325459257376355864621350449692L
sbsg11
I21
sg12
I01
sg13
(lp315
sg15
(lp316
sg17
(dp317
g19
I88
ssg20
(lp318
sg22
I93
sba(i__main__
Person
p319
(dp320
g4
g5
(g6
g7
NtRp321
(dp322
g10
L50340356404687419891958615729153569308L
sbsg11
I19
sg12
I01
sg13
(lp323
sg15
(lp324
sg17
(dp325
g19
I4
ssg20
(lp326
sg22
I72
sba(i__main__
Person
p327
(dp328
g4
g5
(g6
g7
NtRp329
(dp330
g10
L50340356483915582406872034618992292380L
sbsg11
I22
sg12
I01
sg13
(lp331
sg15
(lp332
sg17
(dp333
g19
I15
ssg20
(lp334
sg22
I93
sba(i__main__
Person
p335
(dp336
g4
g5
(g6
g7
NtRp337
(dp338
g10
L50341147339433799795415745165358854684L
sbsg11
I29
sg12
I01
sg13
(lp339
sg15
(lp340
sg17
(dp341
g19
I46
ssg20
(lp342
sg22
I96
sba(i__main__
Person
p343
(dp344
g4
g5
(g6
g7
NtRp345
(dp346
g10
L50341147418661962306976797082573664796L
sbsg11
I29
sg12
I01
sg13
(lp347
sg15
(lp348
sg17
(dp349
g19
I22
ssg20
(lp350
sg22
I87
sba(i__main__
Person
p351
(dp352
g4
g5
(g6
g7
NtRp353
(dp354
g10
L50341147497890124822720285678732112412L
sbsg11
I19
sg12
I01
sg13
(lp355
sg15
(lp356
sg17
(dp357
g19
I2
ssg20
(lp358
sg22
I56
sba(i__main__
Person
p359
(dp360
g4
g5
(g6
g7
NtRp361
(dp362
g10
L50341147577118287336269113881477575196L
sbsg11
I25
sg12
I01
sg13
(lp363
sg15
(lp364
sg17
(dp365
g19
I48
ssg20
(lp366
sg22
I68
sba(i__main__
Person
p367
(dp368
g4
g5
(g6
g7
NtRp369
(dp370
g10
L50341147656346449848326406182633271836L
sbsg11
I30
sg12
I01
sg13
(lp371
sg15
(lp372
sg17
(dp373
g19
I77
ssg20
(lp374
sg22
I68
sba(i__main__
Person
p375
(dp376
g4
g5
(g6
g7
NtRp377
(dp378
g10
L50341147735574612364299296884810904092L
sbsg11
I30
sg12
I01
sg13
(lp379
sg15
(lp380
sg17
(dp381
g19
I100
ssg20
(lp382
sg22
I93
sba(i__main__
Person
p383
(dp384
g4
g5
(g6
g7
NtRp385
(dp386
g10
L50341147814802774878181954409935204892L
sbsg11
I30
sg12
I01
sg13
(lp387
sg15
(lp388
sg17
(dp389
g19
I70
ssg20
(lp390
sg22
I74
sba(i__main__
Person
p391
(dp392
g4
g5
(g6
g7
NtRp393
(dp394
g10
L50341147894030937392619117639179498012L
sbsg11
I18
sg12
I01
sg13
(lp395
sg15
(lp396
sg17
(dp397
g19
I19
ssg20
(lp398
sg22
I68
sba(i__main__
Person
p399
(dp400
g4
g5
(g6
g7
NtRp401
(dp402
g10
L50341147973259099907733509662389629468L
sbsg11
I29
sg12
I01
sg13
(lp403
sg15
(lp404
sg17
(dp405
g19
I55
ssg20
(lp406
sg22
I65
sba(i__main__
Person
p407
(dp408
g4
g5
(g6
g7
NtRp409
(dp410
g10
L50341148052487262422067653050157822492L
sbsg11
I28
sg12
I01
sg13
(lp411
sg15
(lp412
sg17
(dp413
g19
I87
ssg20
(lp414
sg22
I60
sba(i__main__
Person
p415
(dp416
g4
g5
(g6
g7
NtRp417
(dp418
g10
L50341148131715424938264034883843715612L
sbsg11
I22
sg12
I01
sg13
(lp419
sg15
(lp420
sg17
(dp421
g19
I70
ssg20
(lp422
sg22
I87
sba(i__main__
Person
p423
(dp424
g4
g5
(g6
g7
NtRp425
(dp426
g10
L50341148210943587450925653959997190684L
sbsg11
I23
sg12
I01
sg13
(lp427
sg15
(lp428
sg17
(dp429
g19
I5
ssg20
(lp430
sg22
I94
sba(i__main__
Person
p431
(dp432
g4
g5
(g6
g7
NtRp433
(dp434
g10
L50341148290171749962855438096702960156L
sbsg11
I26
sg12
I01
sg13
(lp435
sg15
(lp436
sg17
(dp437
g19
I68
ssg20
(lp438
sg22
I75
sba(i__main__
Person
p439
(dp440
g4
g5
(g6
g7
NtRp441
(dp442
g10
L50341148369399912480239081382154400284L
sbsg11
I20
sg12
I01
sg13
(lp443
sg15
(lp444
sg17
(dp445
g19
I44
ssg20
(lp446
sg22
I99
sba(i__main__
Person
p447
(dp448
g4
g5
(g6
g7
NtRp449
(dp450
g10
L50341148448628074992204331365925712412L
sbsg11
I28
sg12
I01
sg13
(lp451
sg15
(lp452
sg17
(dp453
g19
I88
ssg20
(lp454
sg22
I75
sba(i__main__
Person
p455
(dp456
g4
g5
(g6
g7
NtRp457
(dp458
g10
L50341148527856237506881874225280905756L
sbsg11
I28
sg12
I01
sg13
(lp459
sg15
(lp460
sg17
(dp461
g19
I89
ssg20
(lp462
sg22
I84
sba(i__main__
Person
p463
(dp464
g4
g5
(g6
g7
NtRp465
(dp466
g10
L50341148607084400020564684516940640796L
sbsg11
I18
sg12
I01
sg13
(lp467
sg15
(lp468
sg17
(dp469
g19
I13
ssg20
(lp470
sg22
I59
sba(i__main__
Person
p471
(dp472
g4
g5
(g6
g7
NtRp473
(dp474
g10
L50341939621058942435543740848597955100L
sbsg11
I22
sg12
I01
sg13
(lp475
sg15
(lp476
sg17
(dp477
g19
I85
ssg20
(lp478
sg22
I59
sba(i__main__
Person
p479
(dp480
g4
g5
(g6
g7
NtRp481
(dp482
g10
L50341939700287104952720500026167063068L
sbsg11
I29
sg12
I01
sg13
(lp483
sg15
(lp484
sg17
(dp485
g19
I14
ssg20
(lp486
sg22
I89
sba(i__main__
Person
p487
(dp488
g4
g5
(g6
g7
NtRp489
(dp490
g10
L50341939779515267463208006382207431196L
sbsg11
I28
sg12
I01
sg13
(lp491
sg15
(lp492
sg17
(dp493
g19
I30
ssg20
(lp494
sg22
I82
sba(i__main__
Person
p495
(dp496
g4
g5
(g6
g7
NtRp497
(dp498
g10
L50341939858743429981648025255253963292L
sbsg11
I29
sg12
I01
sg13
(lp499
sg15
(lp500
sg17
(dp501
g19
I21
ssg20
(lp502
sg22
I70
sba(i__main__
Person
p503
(dp504
g4
g5
(g6
g7
NtRp505
(dp506
g10
L50341939937971592494689354074990113308L
sbsg11
I19
sg12
I01
sg13
(lp507
sg15
(lp508
sg17
(dp509
g19
I52
ssg20
(lp510
sg22
I65
sba(i__main__
Person
p511
(dp512
g4
g5
(g6
g7
NtRp513
(dp514
g10
L50341940017199755007871983333035012636L
sbsg11
I29
sg12
I01
sg13
(lp515
sg15
(lp516
sg17
(dp517
g19
I27
ssg20
(lp518
sg22
I68
sba(i__main__
Person
p519
(dp520
g4
g5
(g6
g7
NtRp521
(dp522
g10
L50341940096427917522537704243368358428L
sbsg11
I19
sg12
I01
sg13
(lp523
sg15
(lp524
sg17
(dp525
g19
I44
ssg20
(lp526
sg22
I70
sba(i__main__
Person
p527
(dp528
g4
g5
(g6
g7
NtRp529
(dp530
g10
L50341940175656080035133176699994829340L
sbsg11
I28
sg12
I01
sg13
(lp531
sg15
(lp532
sg17
(dp533
g19
I96
ssg20
(lp534
sg22
I58
sba(i__main__
Person
p535
(dp536
g4
g5
(g6
g7
NtRp537
(dp538
g10
L50341940254884242551696038953357996572L
sbsg11
I26
sg12
I01
sg13
(lp539
sg15
(lp540
sg17
(dp541
g19
I100
ssg20
(lp542
sg22
I80
sba(i__main__
Person
p543
(dp544
g4
g5
(g6
g7
NtRp545
(dp546
g10
L50341940334112405067093313328162337308L
sbsg11
I24
sg12
I01
sg13
(lp547
sg15
(lp548
sg17
(dp549
g19
I71
ssg20
(lp550
sg22
I84
sba(i__main__
Person
p551
(dp552
g4
g5
(g6
g7
NtRp553
(dp554
g10
L50341940413340567577449370870078829084L
sbsg11
I28
sg12
I01
sg13
(lp555
sg15
(lp556
sg17
(dp557
g19
I89
ssg20
(lp558
sg22
I56
sba(i__main__
Person
p559
(dp560
g4
g5
(g6
g7
NtRp561
(dp562
g10
L50341940492568730095742741280259109404L
sbsg11
I20
sg12
I01
sg13
(lp563
sg15
(lp564
sg17
(dp565
g19
I63
ssg20
(lp566
sg22
I78
sba(i__main__
Person
p567
(dp568
g4
g5
(g6
g7
NtRp569
(dp570
g10
L50341940571796892605984238506654364188L
sbsg11
I21
sg12
I01
sg13
(lp571
sg15
(lp572
sg17
(dp573
g19
I1
ssg20
(lp574
sg22
I72
sba(i__main__
Person
p575
(dp576
g4
g5
(g6
g7
NtRp577
(dp578
g10
L50341940651025055120440260559338271260L
sbsg11
I30
sg12
I01
sg13
(lp579
sg15
(lp580
sg17
(dp581
g19
I7
ssg20
(lp582
sg22
I66
sba(i__main__
Person
p583
(dp584
g4
g5
(g6
g7
NtRp585
(dp586
g10
L50341940730253217636078477514206933532L
sbsg11
I20
sg12
I01
sg13
(lp587
sg15
(lp588
sg17
(dp589
g19
I22
ssg20
(lp590
sg22
I54
sba(i__main__
Person
p591
(dp592
g4
g5
(g6
g7
NtRp593
(dp594
g10
L50341940809481380151479974013661934108L
sbsg11
I19
sg12
I01
sg13
(lp595
sg15
(lp596
sg17
(dp597
g19
I50
ssg20
(lp598
sg22
I87
sba(i__main__
Person
p599
(dp600
g4
g5
(g6
g7
NtRp601
(dp602
g10
L50341940888709542664500473685121495580L
sbsg11
I29
sg12
I01
sg13
(lp603
sg15
(lp604
sg17
(dp605
g19
I35
ssg20
(lp606
sg22
I61
sba(i__main__
Person
p607
(dp608
g4
g5
(g6
g7
NtRp609
(dp610
g10
L50341940967937705179500023917833679388L
sbsg11
I26
sg12
I01
sg13
(lp611
sg15
(lp612
sg17
(dp613
g19
I95
ssg20
(lp614
sg22
I69
sba(i__main__
Person
p615
(dp616
g4
g5
(g6
g7
NtRp617
(dp618
g10
L50342731981912247593948499918391407132L
sbsg11
I27
sg12
I01
sg13
(lp619
sg15
(lp620
sg17
(dp621
g19
I15
ssg20
(lp622
sg22
I57
sba(i__main__
Person
p623
(dp624
g4
g5
(g6
g7
NtRp625
(dp626
g10
L50342732061140410106386909338013331996L
sbsg11
I26
sg12
I01
sg13
(lp627
sg15
(lp628
sg17
(dp629
g19
I79
ssg20
(lp630
sg22
I68
sba(i__main__
Person
p631
(dp632
g4
g5
(g6
g7
NtRp633
(dp634
g10
L50342732140368572622214277477231555100L
sbsg11
I23
sg12
I01
sg13
(lp635
sg15
(lp636
sg17
(dp637
g19
I54
ssg20
(lp638
sg22
I75
sba(i__main__
Person
p639
(dp640
g4
g5
(g6
g7
NtRp641
(dp642
g10
L50342732219596735138379134113525854748L
sbsg11
I20
sg12
I01
sg13
(lp643
sg15
(lp644
sg17
(dp645
g19
I6
ssg20
(lp646
sg22
I52
sba(i__main__
Person
p647
(dp648
g4
g5
(g6
g7
NtRp649
(dp650
g10
L50342732298824897650393642218221531676L
sbsg11
I22
sg12
I01
sg13
(lp651
sg15
(lp652
sg17
(dp653
g19
I73
ssg20
(lp654
sg22
I89
sba(i__main__
Person
p655
(dp656
g4
g5
(g6
g7
NtRp657
(dp658
g10
L50342732378053060164267855494044512796L
sbsg11
I20
sg12
I01
sg13
(lp659
sg15
(lp660
sg17
(dp661
g19
I2
ssg20
(lp662
sg22
I52
sba(i__main__
Person
p663
(dp664
g4
g5
(g6
g7
NtRp665
(dp666
g10
L50342732457281222677682983082852413980L
sbsg11
I27
sg12
I01
sg13
(lp667
sg15
(lp668
sg17
(dp669
g19
I2
ssg20
(lp670
sg22
I74
sba(i__main__
Person
p671
(dp672
g4
g5
(g6
g7
NtRp673
(dp674
g10
L50342732536509385195592984574752780828L
sbsg11
I23
sg12
I01
sg13
(lp675
sg15
(lp676
sg17
(dp677
g19
I89
ssg20
(lp678
sg22
I62
sba(i__main__
Person
p679
(dp680
g4
g5
(g6
g7
NtRp681
(dp682
g10
L50342732615737547707243264059584868892L
sbsg11
I28
sg12
I01
sg13
(lp683
sg15
(lp684
sg17
(dp685
g19
I80
ssg20
(lp686
sg22
I70
sba(i__main__
Person
p687
(dp688
g4
g5
(g6
g7
NtRp689
(dp690
g10
L50342732694965710222383833255629091356L
sbsg11
I22
sg12
I01
sg13
(lp691
sg15
(lp692
sg17
(dp693
g19
I12
ssg20
(lp694
sg22
I66
sba(i__main__
Person
p695
(dp696
g4
g5
(g6
g7
NtRp697
(dp698
g10
L50342732774193872737566905173156622876L
sbsg11
I29
sg12
I01
sg13
(lp699
sg15
(lp700
sg17
(dp701
g19
I11
ssg20
(lp702
sg22
I59
sba(i__main__
Person
p703
(dp704
g4
g5
(g6
g7
NtRp705
(dp706
g10
L50342732853422035251682623978997346844L
sbsg11
I18
sg12
I01
sg13
(lp707
sg15
(lp708
sg17
(dp709
g19
I6
ssg20
(lp710
sg22
I54
sba(i__main__
Person
p711
(dp712
g4
g5
(g6
g7
NtRp713
(dp714
g10
L50342732932650197764552816012893418012L
sbsg11
I27
sg12
I01
sg13
(lp715
sg15
(lp716
sg17
(dp717
g19
I60
ssg20
(lp718
sg22
I77
sba(i__main__
Person
p719
(dp720
g4
g5
(g6
g7
NtRp721
(dp722
g10
L50342733011878360281736612064880292380L
sbsg11
I21
sg12
I01
sg13
(lp723
sg15
(lp724
sg17
(dp725
g19
I100
ssg20
(lp726
sg22
I84
sba(i__main__
Person
p727
(dp728
g4
g5
(g6
g7
NtRp729
(dp730
g10
L50343524263537390235720027990644027932L
sbsg11
I30
sg12
I01
sg13
(lp731
sg15
(lp732
sg17
(dp733
g19
I4
ssg20
(lp734
sg22
I75
sba(i__main__
Person
p735
(dp736
g4
g5
(g6
g7
NtRp737
(dp738
g10
L50343524342765552749844472520762782236L
sbsg11
I21
sg12
I01
sg13
(lp739
sg15
(lp740
sg17
(dp741
g19
I37
ssg20
(lp742
sg22
I67
sba(i__main__
Person
p743
(dp744
g4
g5
(g6
g7
NtRp745
(dp746
g10
L50343524421993715268384133535564886556L
sbsg11
I20
sg12
I01
sg13
(lp747
sg15
(lp748
sg17
(dp749
g19
I29
ssg20
(lp750
sg22
I58
sba(i__main__
Person
p751
(dp752
g4
g5
(g6
g7
NtRp753
(dp754
g10
L50343524501221877780341220745011589660L
sbsg11
I22
sg12
I01
sg13
(lp755
sg15
(lp756
sg17
(dp757
g19
I15
ssg20
(lp758
sg22
I84
sba(i__main__
Person
p759
(dp760
g4
g5
(g6
g7
NtRp761
(dp762
g10
L50343524580450040294539411719028535836L
sbsg11
I26
sg12
I01
sg13
(lp763
sg15
(lp764
sg17
(dp765
g19
I26
ssg20
(lp766
sg22
I98
sba(i__main__
Person
p767
(dp768
g4
g5
(g6
g7
NtRp769
(dp770
g10
L50343524659678202811051327001607074332L
sbsg11
I22
sg12
I01
sg13
(lp771
sg15
(lp772
sg17
(dp773
g19
I10
ssg20
(lp774
sg22
I64
sba(i__main__
Person
p775
(dp776
g4
g5
(g6
g7
NtRp777
(dp778
g10
L50343524738906365321552344156529553948L
sbsg11
I26
sg12
I01
sg13
(lp779
sg15
(lp780
sg17
(dp781
g19
I6
ssg20
(lp782
sg22
I82
sba(i__main__
Person
p783
(dp784
g4
g5
(g6
g7
NtRp785
(dp786
g10
L50343524818134527835764045929428611612L
sbsg11
I24
sg12
I01
sg13
(lp787
sg15
(lp788
sg17
(dp789
g19
I81
ssg20
(lp790
sg22
I60
sba(i__main__
Person
p791
(dp792
g4
g5
(g6
g7
NtRp793
(dp794
g10
L50343524897362690351399166659553456668L
sbsg11
I18
sg12
I01
sg13
(lp795
sg15
(lp796
sg17
(dp797
g19
I42
ssg20
(lp798
sg22
I56
sba(i__main__
Person
p799
(dp800
g4
g5
(g6
g7
NtRp801
(dp802
g10
L50343524976590852867529401873712345628L
sbsg11
I18
sg12
I01
sg13
(lp803
sg15
(lp804
sg17
(dp805
g19
I70
ssg20
(lp806
sg22
I53
sba(i__main__
Person
p807
(dp808
g4
g5
(g6
g7
NtRp809
(dp810
g10
L50343525055819015379411616739354014236L
sbsg11
I26
sg12
I01
sg13
(lp811
sg15
(lp812
sg17
(dp813
g19
I98
ssg20
(lp814
sg22
I85
sba(i__main__
Person
p815
(dp816
g4
g5
(g6
g7
NtRp817
(dp818
g10
L50343525135047177894582866707859698204L
sbsg11
I18
sg12
I01
sg13
(lp819
sg15
(lp820
sg17
(dp821
g19
I46
ssg20
(lp822
sg22
I61
sba(i__main__
Person
p823
(dp824
g4
g5
(g6
g7
NtRp825
(dp826
g10
L50343525214275340408980623440364499484L
sbsg11
I18
sg12
I01
sg13
(lp827
sg15
(lp828
sg17
(dp829
g19
I43
ssg20
(lp830
sg22
I94
sba(i__main__
Person
p831
(dp832
g4
g5
(g6
g7
NtRp833
(dp834
g10
L50343525293503502922187741021383225884L
sbsg11
I29
sg12
I01
sg13
(lp835
sg15
(lp836
sg17
(dp837
g19
I45
ssg20
(lp838
sg22
I80
sba(i__main__
Person
p839
(dp840
g4
g5
(g6
g7
NtRp841
(dp842
g10
L50343525372731665438805490895204971036L
sbsg11
I21
sg12
I01
sg13
(lp843
sg15
(lp844
sg17
(dp845
g19
I55
ssg20
(lp846
sg22
I78
sba(i__main__
Person
p847
(dp848
g4
g5
(g6
g7
NtRp849
(dp850
g10
L50343525451959827952008386351573037596L
sbsg11
I24
sg12
I01
sg13
(lp851
sg15
(lp852
sg17
(dp853
g19
I66
ssg20
(lp854
sg22
I89
sba(i__main__
Person
p855
(dp856
g4
g5
(g6
g7
NtRp857
(dp858
g10
L50343525531187990464121410698117444124L
sbsg11
I28
sg12
I01
sg13
(lp859
sg15
(lp860
sg17
(dp861
g19
I19
ssg20
(lp862
sg22
I56
sba(i__main__
Person
p863
(dp864
g4
g5
(g6
g7
NtRp865
(dp866
g10
L50343525610416152978813871731238302236L
sbsg11
I27
sg12
I01
sg13
(lp867
sg15
(lp868
sg17
(dp869
g19
I12
ssg20
(lp870
sg22
I83
sba(i__main__
Person
p871
(dp872
g4
g5
(g6
g7
NtRp873
(dp874
g10
L50344316465934370366608577364577808924L
sbsg11
I29
sg12
I01
sg13
(lp875
sg15
(lp876
sg17
(dp877
g19
I53
ssg20
(lp878
sg22
I62
sba(i__main__
Person
p879
(dp880
g4
g5
(g6
g7
NtRp881
(dp882
g10
L50344316545162532881039548144334467612L
sbsg11
I24
sg12
I01
sg13
(lp883
sg15
(lp884
sg17
(dp885
g19
I47
ssg20
(lp886
sg22
I75
sba(i__main__
Person
p887
(dp888
g4
g5
(g6
g7
NtRp889
(dp890
g10
L50344316624390695393831208659728265756L
sbsg11
I29
sg12
I01
sg13
(lp891
sg15
(lp892
sg17
(dp893
g19
I71
ssg20
(lp894
sg22
I97
sba(i__main__
Person
p895
(dp896
g4
g5
(g6
g7
NtRp897
(dp898
g10
L50344316703618857911563880916300919324L
sbsg11
I27
sg12
I01
sg13
(lp899
sg15
(lp900
sg17
(dp901
g19
I59
ssg20
(lp902
sg22
I86
sba(i__main__
Person
p903
(dp904
g4
g5
(g6
g7
NtRp905
(dp906
g10
L50344316782847020425715628519160607260L
sbsg11
I28
sg12
I01
sg13
(lp907
sg15
(lp908
sg17
(dp909
g19
I50
ssg20
(lp910
sg22
I76
sba(i__main__
Person
p911
(dp912
g4
g5
(g6
g7
NtRp913
(dp914
g10
L50344316862075182940393734328469221916L
sbsg11
I19
sg12
I01
sg13
(lp915
sg15
(lp916
sg17
(dp917
g19
I75
ssg20
(lp918
sg22
I94
sba(i__main__
Person
p919
(dp920
g4
g5
(g6
g7
NtRp921
(dp922
g10
L50344316941303345451881602751739261468L
sbsg11
I23
sg12
I01
sg13
(lp923
sg15
(lp924
sg17
(dp925
g19
I82
ssg20
(lp926
sg22
I84
sba(i__main__
Person
p927
(dp928
g4
g5
(g6
g7
NtRp929
(dp930
g10
L50344317020531507965716128055846040092L
sbsg11
I18
sg12
I01
sg13
(lp931
sg15
(lp932
sg17
(dp933
g19
I91
ssg20
(lp934
sg22
I83
sba(i__main__
Person
p935
(dp936
g4
g5
(g6
g7
NtRp937
(dp938
g10
L50344317099759670481768676176432787996L
sbsg11
I20
sg12
I01
sg13
(lp939
sg15
(lp940
sg17
(dp941
g19
I50
ssg20
(lp942
sg22
I68
sba(i__main__
Person
p943
(dp944
g4
g5
(g6
g7
NtRp945
(dp946
g10
L50344317178987832994229040644238144028L
sbsg11
I18
sg12
I01
sg13
(lp947
sg15
(lp948
sg17
(dp949
g19
I45
ssg20
(lp950
sg22
I55
sba(i__main__
Person
p951
(dp952
g4
g5
(g6
g7
NtRp953
(dp954
g10
L50344317258215995507885110813110366748L
sbsg11
I24
sg12
I01
sg13
(lp955
sg15
(lp956
sg17
(dp957
g19
I19
ssg20
(lp958
sg22
I73
sba(i__main__
Person
p959
(dp960
g4
g5
(g6
g7
NtRp961
(dp962
g10
L50344317337444158025050892466587759132L
sbsg11
I26
sg12
I01
sg13
(lp963
sg15
(lp964
sg17
(dp965
g19
I29
ssg20
(lp966
sg22
I62
sba(i__main__
Person
p967
(dp968
g4
g5
(g6
g7
NtRp969
(dp970
g10
L50344317416672320540209757536118174236L
sbsg11
I22
sg12
I01
sg13
(lp971
sg15
(lp972
sg17
(dp973
g19
I60
ssg20
(lp974
sg22
I51
sba(i__main__
Person
p975
(dp976
g4
g5
(g6
g7
NtRp977
(dp978
g10
L50344317495900483051217992599073255964L
sbsg11
I29
sg12
I01
sg13
(lp979
sg15
(lp980
sg17
(dp981
g19
I97
ssg20
(lp982
sg22
I56
sba(i__main__
Person
p983
(dp984
g4
g5
(g6
g7
NtRp985
(dp986
g10
L50344317575128645566195024833648587292L
sbsg11
I25
sg12
I01
sg13
(lp987
sg15
(lp988
sg17
(dp989
g19
I14
ssg20
(lp990
sg22
I91
sba(i__main__
Person
p991
(dp992
g4
g5
(g6
g7
NtRp993
(dp994
g10
L50344317654356808080652454261216047644L
sbsg11
I28
sg12
I01
sg13
(lp995
sg15
(lp996
sg17
(dp997
g19
I73
ssg20
(lp998
sg22
I75
sba(i__main__
Person
p999
(dp1000
g4
g5
(g6
g7
NtRp1001
(dp1002
g10
L50344317733584970595901391323293872668L
sbsg11
I19
sg12
I01
sg13
(lp1003
sg15
(lp1004
sg17
(dp1005
g19
I40
ssg20
(lp1006
sg22
I65
sba(i__main__
Person
p1007
(dp1008
g4
g5
(g6
g7
NtRp1009
(dp1010
g10
L50344317812813133108636193893392118300L
sbsg11
I29
sg12
I01
sg13
(lp1011
sg15
(lp1012
sg17
(dp1013
g19
I53
ssg20
(lp1014
sg22
I91
sba(i__main__
Person
p1015
(dp1016
g4
g5
(g6
g7
NtRp1017
(dp1018
g10
L50345108747559513010414325093518340636L
sbsg11
I27
sg12
I01
sg13
(lp1019
sg15
(lp1020
sg17
(dp1021
g19
I38
ssg20
(lp1022
sg22
I72
sba(i__main__
Person
p1023
(dp1024
g4
g5
(g6
g7
NtRp1025
(dp1026
g10
L50345108826787675522400967175519662620L
sbsg11
I26
sg12
I01
sg13
(lp1027
sg15
(lp1028
sg17
(dp1029
g19
I24
ssg20
(lp1030
sg22
I97
sba(i__main__
Person
p1031
(dp1032
g4
g5
(g6
g7
NtRp1033
(dp1034
g10
L50345108906015838038235935139109073436L
sbsg11
I20
sg12
I01
sg13
(lp1035
sg15
(lp1036
sg17
(dp1037
g19
I42
ssg20
(lp1038
sg22
I68
sba(i__main__
Person
p1039
(dp1040
g4
g5
(g6
g7
NtRp1041
(dp1042
g10
L50345108985244000553036482563286823452L
sbsg11
I27
sg12
I01
sg13
(lp1043
sg15
(lp1044
sg17
(dp1045
g19
I10
ssg20
(lp1046
sg22
I80
sba(i__main__
Person
p1047
(dp1048
g4
g5
(g6
g7
NtRp1049
(dp1050
g10
L50345109064472163069269737618921812508L
sbsg11
I24
sg12
I01
sg13
(lp1051
sg15
(lp1052
sg17
(dp1053
g19
I26
ssg20
(lp1054
sg22
I75
sba(i__main__
Person
p1055
(dp1056
g4
g5
(g6
g7
NtRp1057
(dp1058
g10
L50345109143700325582097145456357863964L
sbsg11
I28
sg12
I01
sg13
(lp1059
sg15
(lp1060
sg17
(dp1061
g19
I58
ssg20
(lp1062
sg22
I70
sba(i__main__
Person
p1063
(dp1064
g4
g5
(g6
g7
NtRp1065
(dp1066
g10
L50345109222928488097928735720226746908L
sbsg11
I30
sg12
I01
sg13
(lp1067
sg15
(lp1068
sg17
(dp1069
g19
I19
ssg20
(lp1070
sg22
I78
sba(i__main__
Person
p1071
(dp1072
g4
g5
(g6
g7
NtRp1073
(dp1074
g10
L50345109302156650609684286846348620316L
sbsg11
I26
sg12
I01
sg13
(lp1075
sg15
(lp1076
sg17
(dp1077
g19
I37
ssg20
(lp1078
sg22
I53
sba(i__main__
Person
p1079
(dp1080
g4
g5
(g6
g7
NtRp1081
(dp1082
g10
L50345109381384813124162826897169379868L
sbsg11
I23
sg12
I01
sg13
(lp1083
sg15
(lp1084
sg17
(dp1085
g19
I45
ssg20
(lp1086
sg22
I56
sba(i__main__
Person
p1087
(dp1088
g4
g5
(g6
g7
NtRp1089
(dp1090
g10
L50345109460612975638100653517728969244L
sbsg11
I23
sg12
I01
sg13
(lp1091
sg15
(lp1092
sg17
(dp1093
g19
I60
ssg20
(lp1094
sg22
I74
sba(i__main__
Person
p1095
(dp1096
g4
g5
(g6
g7
NtRp1097
(dp1098
g10
L50345109539841138154201896809286660636L
sbsg11
I20
sg12
I01
sg13
(lp1099
sg15
(lp1100
sg17
(dp1101
g19
I21
ssg20
(lp1102
sg22
I89
sba(i__main__
Person
p1103
(dp1104
g4
g5
(g6
g7
NtRp1105
(dp1106
g10
L50345109619069300667475723959785812508L
sbsg11
I30
sg12
I01
sg13
(lp1107
sg15
(lp1108
sg17
(dp1109
g19
I67
ssg20
(lp1110
sg22
I78
sba(i__main__
Person
p1111
(dp1112
g4
g5
(g6
g7
NtRp1113
(dp1114
g10
L50345109698297463180337753219357274652L
sbsg11
I19
sg12
I01
sg13
(lp1115
sg15
(lp1116
sg17
(dp1117
g19
I17
ssg20
(lp1118
sg22
I70
sba(i__main__
Person
p1119
(dp1120
g4
g5
(g6
g7
NtRp1121
(dp1122
g10
L50345109777525625694411250778691400220L
sbsg11
I29
sg12
I01
sg13
(lp1123
sg15
(lp1124
sg17
(dp1125
g19
I59
ssg20
(lp1126
sg22
I92
sba(i__main__
Person
p1127
(dp1128
g4
g5
(g6
g7
NtRp1129
(dp1130
g10
L50345109856753788208096031395188109852L
sbsg11
I21
sg12
I01
sg13
(lp1131
sg15
(lp1132
sg17
(dp1133
g19
I14
ssg20
(lp1134
sg22
I78
sba(i__main__
Person
p1135
(dp1136
g4
g5
(g6
g7
NtRp1137
(dp1138
g10
L50345109935981950725908361070169879068L
sbsg11
I22
sg12
I01
sg13
(lp1139
sg15
(lp1140
sg17
(dp1141
g19
I51
ssg20
(lp1142
sg22
I89
sba(i__main__
Person
p1143
(dp1144
g4
g5
(g6
g7
NtRp1145
(dp1146
g10
L50345110015210113239465633522216661532L
sbsg11
I24
sg12
I01
sg13
(lp1147
sg15
(lp1148
sg17
(dp1149
g19
I41
ssg20
(lp1150
sg22
I69
sba(i__main__
Person
p1151
(dp1152
g4
g5
(g6
g7
NtRp1153
(dp1154
g10
L50345110094438275753357298246595703324L
sbsg11
I22
sg12
I01
sg13
(lp1155
sg15
(lp1156
sg17
(dp1157
g19
I78
ssg20
(lp1158
sg22
I51
sba(i__main__
Person
p1159
(dp1160
g4
g5
(g6
g7
NtRp1161
(dp1162
g10
L50345900949956493140221729081906491932L
sbsg11
I20
sg12
I01
sg13
(lp1163
sg15
(lp1164
sg17
(dp1165
g19
I78
ssg20
(lp1166
sg22
I51
sba(i__main__
Person
p1167
(dp1168
g4
g5
(g6
g7
NtRp1169
(dp1170
g10
L50345901029184655654412038756575539740L
sbsg11
I27
sg12
I01
sg13
(lp1171
sg15
(lp1172
sg17
(dp1173
g19
I55
ssg20
(lp1174
sg22
I93
sba(i__main__
Person
p1175
(dp1176
g4
g5
(g6
g7
NtRp1177
(dp1178
g10
L50345901108412818168875660633630634524L
sbsg11
I25
sg12
I01
sg13
(lp1179
sg15
(lp1180
sg17
(dp1181
g19
I23
ssg20
(lp1182
sg22
I68
sba(i__main__
Person
p1183
(dp1184
g4
g5
(g6
g7
NtRp1185
(dp1186
g10
L50345901187640980683938542736102715932L
sbsg11
I26
sg12
I01
sg13
(lp1187
sg15
(lp1188
sg17
(dp1189
g19
I76
ssg20
(lp1190
sg22
I97
sba(i__main__
Person
p1191
(dp1192
g4
g5
(g6
g7
NtRp1193
(dp1194
g10
L50345901266869143197718461894727627292L
sbsg11
I25
sg12
I01
sg13
(lp1195
sg15
(lp1196
sg17
(dp1197
g19
I74
ssg20
(lp1198
sg22
I95
sba(i__main__
Person
p1199
(dp1200
g4
g5
(g6
g7
NtRp1201
(dp1202
g10
L50345901346097305710015852351017513500L
sbsg11
I25
sg12
I01
sg13
(lp1203
sg15
(lp1204
sg17
(dp1205
g19
I21
ssg20
(lp1206
sg22
I63
sba(i__main__
Person
p1207
(dp1208
g4
g5
(g6
g7
NtRp1209
(dp1210
g10
L50345901425325468224196028926524977692L
sbsg11
I23
sg12
I01
sg13
(lp1211
sg15
(lp1212
sg17
(dp1213
g19
I5
ssg20
(lp1214
sg22
I82
sba(i__main__
Person
p1215
(dp1216
g4
g5
(g6
g7
NtRp1217
(dp1218
g10
L50345901504553630739965694695517516316L
sbsg11
I22
sg12
I01
sg13
(lp1219
sg15
(lp1220
sg17
(dp1221
g19
I83
ssg20
(lp1222
sg22
I58
sba(i__main__
Person
p1223
(dp1224
g4
g5
(g6
g7
NtRp1225
(dp1226
g10
L50345901583781793255001836675202085404L
sbsg11
I28
sg12
I01
sg13
(lp1227
sg15
(lp1228
sg17
(dp1229
g19
I88
ssg20
(lp1230
sg22
I65
sba(i__main__
Person
p1231
(dp1232
g4
g5
(g6
g7
NtRp1233
(dp1234
g10
L50345901663009955769724978480784405020L
sbsg11
I30
sg12
I01
sg13
(lp1235
sg15
(lp1236
sg17
(dp1237
g19
I7
ssg20
(lp1238
sg22
I70
sba(i__main__
Person
p1239
(dp1240
g4
g5
(g6
g7
NtRp1241
(dp1242
g10
L50345901742238118284211681305929773596L
sbsg11
I25
sg12
I01
sg13
(lp1243
sg15
(lp1244
sg17
(dp1245
g19
I58
ssg20
(lp1246
sg22
I69
sba(i__main__
Person
p1247
(dp1248
g4
g5
(g6
g7
NtRp1249
(dp1250
g10
L50345901821466280795610885111535956508L
sbsg11
I22
sg12
I01
sg13
(lp1251
sg15
(lp1252
sg17
(dp1253
g19
I62
ssg20
(lp1254
sg22
I99
sba(i__main__
Person
p1255
(dp1256
g4
g5
(g6
g7
NtRp1257
(dp1258
g10
L50345901900694443308599296635650503196L
sbsg11
I20
sg12
I01
sg13
(lp1259
sg15
(lp1260
sg17
(dp1261
g19
I17
ssg20
(lp1262
sg22
I79
sba(i__main__
Person
p1263
(dp1264
g4
g5
(g6
g7
NtRp1265
(dp1266
g10
L50345901979922605823642194014776128028L
sbsg11
I27
sg12
I01
sg13
(lp1267
sg15
(lp1268
sg17
(dp1269
g19
I77
ssg20
(lp1270
sg22
I80
sba(i__main__
Person
p1271
(dp1272
g4
g5
(g6
g7
NtRp1273
(dp1274
g10
L50345902059150768338891131076853953052L
sbsg11
I25
sg12
I01
sg13
(lp1275
sg15
(lp1276
sg17
(dp1277
g19
I34
ssg20
(lp1278
sg22
I82
sba(i__main__
Person
p1279
(dp1280
g4
g5
(g6
g7
NtRp1281
(dp1282
g10
L50345902138378930855012359091758101020L
sbsg11
I18
sg12
I01
sg13
(lp1283
sg15
(lp1284
sg17
(dp1285
g19
I92
ssg20
(lp1286
sg22
I100
sba(i__main__
Person
p1287
(dp1288
g4
g5
(g6
g7
NtRp1289
(dp1290
g10
L50345902217607093368093094408233742876L
sbsg11
I30
sg12
I01
sg13
(lp1291
sg15
(lp1292
sg17
(dp1293
g19
I11
ssg20
(lp1294
sg22
I90
sba(i__main__
Person
p1295
(dp1296
g4
g5
(g6
g7
NtRp1297
(dp1298
g10
L50345902296835255879668783024237507100L
sbsg11
I18
sg12
I01
sg13
(lp1299
sg15
(lp1300
sg17
(dp1301
g19
I99
ssg20
(lp1302
sg22
I88
sba(i__main__
Person
p1303
(dp1304
g4
g5
(g6
g7
NtRp1305
(dp1306
g10
L50346693152353473269307431230008521244L
sbsg11
I22
sg12
I01
sg13
(lp1307
sg15
(lp1308
sg17
(dp1309
g19
I35
ssg20
(lp1310
sg22
I94
sba(i__main__
Person
p1311
(dp1312
g4
g5
(g6
g7
NtRp1313
(dp1314
g10
L50346693231581635784780703848524739100L
sbsg11
I24
sg12
I01
sg13
(lp1315
sg15
(lp1316
sg17
(dp1317
g19
I90
ssg20
(lp1318
sg22
I50
sba(i__main__
Person
p1319
(dp1320
g4
g5
(g6
g7
NtRp1321
(dp1322
g10
L50346693310809798298745270591871840796L
sbsg11
I25
sg12
I01
sg13
(lp1323
sg15
(lp1324
sg17
(dp1325
g19
I25
ssg20
(lp1326
sg22
I67
sba(i__main__
Person
p1327
(dp1328
g4
g5
(g6
g7
NtRp1329
(dp1330
g10
L50346693390037960811461777288483893788L
sbsg11
I22
sg12
I01
sg13
(lp1331
sg15
(lp1332
sg17
(dp1333
g19
I74
ssg20
(lp1334
sg22
I82
sba(i__main__
Person
p1335
(dp1336
g4
g5
(g6
g7
NtRp1337
(dp1338
g10
L50346693469266123325779876602579579420L
sbsg11
I23
sg12
I01
sg13
(lp1339
sg15
(lp1340
sg17
(dp1341
g19
I54
ssg20
(lp1342
sg22
I79
sba(i__main__
Person
p1343
(dp1344
g4
g5
(g6
g7
NtRp1345
(dp1346
g10
L50346693548494285839743317446019838492L
sbsg11
I20
sg12
I01
sg13
(lp1347
sg15
(lp1348
sg17
(dp1349
g19
I16
ssg20
(lp1350
sg22
I76
sba(i__main__
Person
p1351
(dp1352
g4
g5
(g6
g7
NtRp1353
(dp1354
g10
L50346693627722448354303766715063398940L
sbsg11
I19
sg12
I01
sg13
(lp1355
sg15
(lp1356
sg17
(dp1357
g19
I2
ssg20
(lp1358
sg22
I60
sba(i__main__
Person
p1359
(dp1360
g4
g5
(g6
g7
NtRp1361
(dp1362
g10
L50346693706950610867731560677823279644L
sbsg11
I28
sg12
I01
sg13
(lp1363
sg15
(lp1364
sg17
(dp1365
g19
I67
ssg20
(lp1366
sg22
I98
sba(i__main__
Person
p1367
(dp1368
g4
g5
(g6
g7
NtRp1369
(dp1370
g10
L50346693786178773380417949551927292444L
sbsg11
I26
sg12
I01
sg13
(lp1371
sg15
(lp1372
sg17
(dp1373
g19
I66
ssg20
(lp1374
sg22
I57
sba(i__main__
Person
p1375
(dp1376
g4
g5
(g6
g7
NtRp1377
(dp1378
g10
L50346693865406935894593904002784096796L
sbsg11
I19
sg12
I01
sg13
(lp1379
sg15
(lp1380
sg17
(dp1381
g19
I6
ssg20
(lp1382
sg22
I65
sba(i__main__
Person
p1383
(dp1384
g4
g5
(g6
g7
NtRp1385
(dp1386
g10
L50346693944635098411321429117522997788L
sbsg11
I24
sg12
I01
sg13
(lp1387
sg15
(lp1388
sg17
(dp1389
g19
I53
ssg20
(lp1390
sg22
I93
sba(i__main__
Person
p1391
(dp1392
g4
g5
(g6
g7
NtRp1393
(dp1394
g10
L50346694023863260926994267494527070748L
sbsg11
I19
sg12
I01
sg13
(lp1395
sg15
(lp1396
sg17
(dp1397
g19
I80
ssg20
(lp1398
sg22
I67
sba(i__main__
Person
p1399
(dp1400
g4
g5
(g6
g7
NtRp1401
(dp1402
g10
L50346694103091423437342725212072374812L
sbsg11
I28
sg12
I01
sg13
(lp1403
sg15
(lp1404
sg17
(dp1405
g19
I69
ssg20
(lp1406
sg22
I89
sba(i__main__
Person
p1407
(dp1408
g4
g5
(g6
g7
NtRp1409
(dp1410
g10
L50346694182319585954655436803392729628L
sbsg11
I28
sg12
I01
sg13
(lp1411
sg15
(lp1412
sg17
(dp1413
g19
I26
ssg20
(lp1414
sg22
I100
sba(i__main__
Person
p1415
(dp1416
g4
g5
(g6
g7
NtRp1417
(dp1418
g10
L50346694261547748467765726992422990364L
sbsg11
I19
sg12
I01
sg13
(lp1419
sg15
(lp1420
sg17
(dp1421
g19
I13
ssg20
(lp1422
sg22
I67
sba(i__main__
Person
p1423
(dp1424
g4
g5
(g6
g7
NtRp1425
(dp1426
g10
L50346694340775910982531090044511908380L
sbsg11
I30
sg12
I01
sg13
(lp1427
sg15
(lp1428
sg17
(dp1429
g19
I2
ssg20
(lp1430
sg22
I63
sba(i__main__
Person
p1431
(dp1432
g4
g5
(g6
g7
NtRp1433
(dp1434
g10
L50347485433978615911816142266266350108L
sbsg11
I22
sg12
I01
sg13
(lp1435
sg15
(lp1436
sg17
(dp1437
g19
I85
ssg20
(lp1438
sg22
I67
sba(i__main__
Person
p1439
(dp1440
g4
g5
(g6
g7
NtRp1441
(dp1442
g10
L50347485513206778426990488459515851292L
sbsg11
I23
sg12
I01
sg13
(lp1443
sg15
(lp1444
sg17
(dp1445
g19
I86
ssg20
(lp1446
sg22
I63
sba(i__main__
Person
p1447
(dp1448
g4
g5
(g6
g7
NtRp1449
(dp1450
g10
L50347485592434940939459860126575948316L
sbsg11
I24
sg12
I01
sg13
(lp1451
sg15
(lp1452
sg17
(dp1453
g19
I75
ssg20
(lp1454
sg22
I79
sba(i__main__
Person
p1455
(dp1456
g4
g5
(g6
g7
NtRp1457
(dp1458
g10
L50347485671663103454452654959847076380L
sbsg11
I26
sg12
I01
sg13
(lp1459
sg15
(lp1460
sg17
(dp1461
g19
I40
ssg20
(lp1462
sg22
I98
sba(i__main__
Person
p1463
(dp1464
g4
g5
(g6
g7
NtRp1465
(dp1466
g10
L50347485750891265966743571491672617500L
sbsg11
I27
sg12
I01
sg13
(lp1467
sg15
(lp1468
sg17
(dp1469
g19
I6
ssg20
(lp1470
sg22
I72
sba(i__main__
Person
p1471
(dp1472
g4
g5
(g6
g7
NtRp1473
(dp1474
g10
L50347485830119428483800140854186275356L
sbsg11
I29
sg12
I01
sg13
(lp1475
sg15
(lp1476
sg17
(dp1477
g19
I70
ssg20
(lp1478
sg22
I65
sba(i__main__
Person
p1479
(dp1480
g4
g5
(g6
g7
NtRp1481
(dp1482
g10
L50347485909347590997773714796788118044L
sbsg11
I27
sg12
I01
sg13
(lp1483
sg15
(lp1484
sg17
(dp1485
g19
I83
ssg20
(lp1486
sg22
I74
sba(i__main__
Person
p1487
(dp1488
g4
g5
(g6
g7
NtRp1489
(dp1490
g10
L50347485988575753513586446237217387036L
sbsg11
I20
sg12
I01
sg13
(lp1491
sg15
(lp1492
sg17
(dp1493
g19
I26
ssg20
(lp1494
sg22
I62
sba(i__main__
Person
p1495
(dp1496
g4
g5
(g6
g7
NtRp1497
(dp1498
g10
L50347486067803916025622909390096495132L
sbsg11
I28
sg12
I01
sg13
(lp1499
sg15
(lp1500
sg17
(dp1501
g19
I85
ssg20
(lp1502
sg22
I68
sba(i__main__
Person
p1503
(dp1504
g4
g5
(g6
g7
NtRp1505
(dp1506
g10
L50347486147032078539830951988298314268L
sbsg11
I21
sg12
I01
sg13
(lp1507
sg15
(lp1508
sg17
(dp1509
g19
I4
ssg20
(lp1510
sg22
I96
sba(i__main__
Person
p1511
(dp1512
g4
g5
(g6
g7
NtRp1513
(dp1514
g10
L50347486226260241053958774218137596444L
sbsg11
I27
sg12
I01
sg13
(lp1515
sg15
(lp1516
sg17
(dp1517
g19
I43
ssg20
(lp1518
sg22
I67
sba(i__main__
Person
p1519
(dp1520
g4
g5
(g6
g7
NtRp1521
(dp1522
g10
L50347486305488403566488100055237063196L
sbsg11
I28
sg12
I01
sg13
(lp1523
sg15
(lp1524
sg17
(dp1525
g19
I33
ssg20
(lp1526
sg22
I69
sba(i__main__
Person
p1527
(dp1528
g4
g5
(g6
g7
NtRp1529
(dp1530
g10
L50347486384716566081426007268049613340L
sbsg11
I24
sg12
I01
sg13
(lp1531
sg15
(lp1532
sg17
(dp1533
g19
I17
ssg20
(lp1534
sg22
I55
sba(i__main__
Person
p1535
(dp1536
g4
g5
(g6
g7
NtRp1537
(dp1538
g10
L50347486463944728596252168915108033052L
sbsg11
I25
sg12
I01
sg13
(lp1539
sg15
(lp1540
sg17
(dp1541
g19
I16
ssg20
(lp1542
sg22
I83
sba(i__main__
Person
p1543
(dp1544
g4
g5
(g6
g7
NtRp1545
(dp1546
g10
L50347486543172891113738269092082151964L
sbsg11
I29
sg12
I01
sg13
(lp1547
sg15
(lp1548
sg17
(dp1549
g19
I41
ssg20
(lp1550
sg22
I84
sba(i__main__
Person
p1551
(dp1552
g4
g5
(g6
g7
NtRp1553
(dp1554
g10
L50347486622401053624706534708344320540L
sbsg11
I24
sg12
I01
sg13
(lp1555
sg15
(lp1556
sg17
(dp1557
g19
I89
ssg20
(lp1558
sg22
I97
sba(i__main__
Person
p1559
(dp1560
g4
g5
(g6
g7
NtRp1561
(dp1562
g10
L50347486701629216140324203989913104924L
sbsg11
I19
sg12
I01
sg13
(lp1563
sg15
(lp1564
sg17
(dp1565
g19
I10
ssg20
(lp1566
sg22
I94
sba(i__main__
Person
p1567
(dp1568
g4
g5
(g6
g7
NtRp1569
(dp1570
g10
L50347486780857378654565179160390070812L
sbsg11
I21
sg12
I01
sg13
(lp1571
sg15
(lp1572
sg17
(dp1573
g19
I8
ssg20
(lp1574
sg22
I67
sba(i__main__
Person
p1575
(dp1576
g4
g5
(g6
g7
NtRp1577
(dp1578
g10
L50348277874060083583763818564294341148L
sbsg11
I23
sg12
I01
sg13
(lp1579
sg15
(lp1580
sg17
(dp1581
g19
I29
ssg20
(lp1582
sg22
I75
sba(i__main__
Person
p1583
(dp1584
g4
g5
(g6
g7
NtRp1585
(dp1586
g10
L50348277953288246099852395481900053020L
sbsg11
I24
sg12
I01
sg13
(lp1587
sg15
(lp1588
sg17
(dp1589
g19
I24
ssg20
(lp1590
sg22
I57
sba(i__main__
Person
p1591
(dp1592
g4
g5
(g6
g7
NtRp1593
(dp1594
g10
L50348278032516408611158149595238298140L
sbsg11
I23
sg12
I01
sg13
(lp1595
sg15
(lp1596
sg17
(dp1597
g19
I55
ssg20
(lp1598
sg22
I91
sba(i__main__
Person
p1599
(dp1600
g4
g5
(g6
g7
NtRp1601
(dp1602
g10
L50348278111744571126281830292679881244L
sbsg11
I26
sg12
I01
sg13
(lp1603
sg15
(lp1604
sg17
(dp1605
g19
I93
ssg20
(lp1606
sg22
I75
sba(i__main__
Person
p1607
(dp1608
g4
g5
(g6
g7
NtRp1609
(dp1610
g10
L50348278190972733638793141731269866012L
sbsg11
I19
sg12
I01
sg13
(lp1611
sg15
(lp1612
sg17
(dp1613
g19
I69
ssg20
(lp1614
sg22
I51
sba(i__main__
Person
p1615
(dp1616
g4
g5
(g6
g7
NtRp1617
(dp1618
g10
L50348278270200896155695181331569373724L
sbsg11
I30
sg12
I01
sg13
(lp1619
sg15
(lp1620
sg17
(dp1621
g19
I97
ssg20
(lp1622
sg22
I97
sba(i__main__
Person
p1623
(dp1624
g4
g5
(g6
g7
NtRp1625
(dp1626
g10
L50348278349429058667103110861453586972L
sbsg11
I18
sg12
I01
sg13
(lp1627
sg15
(lp1628
sg17
(dp1629
g19
I79
ssg20
(lp1630
sg22
I81
sba(i__main__
Person
p1631
(dp1632
g4
g5
(g6
g7
NtRp1633
(dp1634
g10
L50348278428657221184212878994565558812L
sbsg11
I26
sg12
I01
sg13
(lp1635
sg15
(lp1636
sg17
(dp1637
g19
I71
ssg20
(lp1638
sg22
I94
sba(i__main__
Person
p1639
(dp1640
g4
g5
(g6
g7
NtRp1641
(dp1642
g10
L50348278507885383695941689997899919900L
sbsg11
I27
sg12
I01
sg13
(lp1643
sg15
(lp1644
sg17
(dp1645
g19
I71
ssg20
(lp1646
sg22
I79
sba(i__main__
Person
p1647
(dp1648
g4
g5
(g6
g7
NtRp1649
(dp1650
g10
L50348278587113546212507648476006904348L
sbsg11
I22
sg12
I01
sg13
(lp1651
sg15
(lp1652
sg17
(dp1653
g19
I51
ssg20
(lp1654
sg22
I69
sba(i__main__
Person
p1655
(dp1656
g4
g5
(g6
g7
NtRp1657
(dp1658
g10
L50348278666341708728345149714386711068L
sbsg11
I21
sg12
I01
sg13
(lp1659
sg15
(lp1660
sg17
(dp1661
g19
I74
ssg20
(lp1662
sg22
I66
sba(i__main__
Person
p1663
(dp1664
g4
g5
(g6
g7
NtRp1665
(dp1666
g10
L50348278745569871242179112068540068380L
sbsg11
I20
sg12
I01
sg13
(lp1667
sg15
(lp1668
sg17
(dp1669
g19
I78
ssg20
(lp1670
sg22
I77
sba(i__main__
Person
p1671
(dp1672
g4
g5
(g6
g7
NtRp1673
(dp1674
g10
L50348278824798033753711453538130391580L
sbsg11
I26
sg12
I01
sg13
(lp1675
sg15
(lp1676
sg17
(dp1677
g19
I99
ssg20
(lp1678
sg22
I50
sba(i__main__
Person
p1679
(dp1680
g4
g5
(g6
g7
NtRp1681
(dp1682
g10
L50348278904026196268137920718259679772L
sbsg11
I28
sg12
I01
sg13
(lp1683
sg15
(lp1684
sg17
(dp1685
g19
I57
ssg20
(lp1686
sg22
I70
sba(i__main__
Person
p1687
(dp1688
g4
g5
(g6
g7
NtRp1689
(dp1690
g10
L50348278983254358783393894654755271196L
sbsg11
I21
sg12
I01
sg13
(lp1691
sg15
(lp1692
sg17
(dp1693
g19
I21
ssg20
(lp1694
sg22
I54
sba(i__main__
Person
p1695
(dp1696
g4
g5
(g6
g7
NtRp1697
(dp1698
g10
L50348279062482521297819517409954427420L
sbsg11
I19
sg12
I01
sg13
(lp1699
sg15
(lp1700
sg17
(dp1701
g19
I24
ssg20
(lp1702
sg22
I73
sba(i__main__
Person
p1703
(dp1704
g4
g5
(g6
g7
NtRp1705
(dp1706
g10
L50348279141710683813320656051165000220L
sbsg11
I21
sg12
I01
sg13
(lp1707
sg15
(lp1708
sg17
(dp1709
g19
I28
ssg20
(lp1710
sg22
I57
sba(i__main__
Person
p1711
(dp1712
g4
g5
(g6
g7
NtRp1713
(dp1714
g10
L50349070076457063713303539849830658588L
sbsg11
I22
sg12
I01
sg13
(lp1715
sg15
(lp1716
sg17
(dp1717
g19
I88
ssg20
(lp1718
sg22
I59
sba(i__main__
Person
p1719
(dp1720
g4
g5
(g6
g7
NtRp1721
(dp1722
g10
L50349070155685226225487214415529439772L
sbsg11
I30
sg12
I01
sg13
(lp1723
sg15
(lp1724
sg17
(dp1725
g19
I66
ssg20
(lp1726
sg22
I50
sba(i__main__
Person
p1727
(dp1728
g4
g5
(g6
g7
NtRp1729
(dp1730
g10
L50349070234913388739852320050735804956L
sbsg11
I23
sg12
I01
sg13
(lp1731
sg15
(lp1732
sg17
(dp1733
g19
I48
ssg20
(lp1734
sg22
I96
sba(i__main__
Person
p1735
(dp1736
g4
g5
(g6
g7
NtRp1737
(dp1738
g10
L50349070314141551256446426026513855004L
sbsg11
I29
sg12
I01
sg13
(lp1739
sg15
(lp1740
sg17
(dp1741
g19
I50
ssg20
(lp1742
sg22
I92
sba(i__main__
Person
p1743
(dp1744
g4
g5
(g6
g7
NtRp1745
(dp1746
g10
L50349070393369713770888937280315650588L
sbsg11
I21
sg12
I01
sg13
(lp1747
sg15
(lp1748
sg17
(dp1749
g19
I4
ssg20
(lp1750
sg22
I64
sba(i__main__
Person
p1751
(dp1752
g4
g5
(g6
g7
NtRp1753
(dp1754
g10
L50349070472597876283467802713316192796L
sbsg11
I23
sg12
I01
sg13
(lp1755
sg15
(lp1756
sg17
(dp1757
g19
I83
ssg20
(lp1758
sg22
I61
sba(i__main__
Person
p1759
(dp1760
g4
g5
(g6
g7
NtRp1761
(dp1762
g10
L50349070551826038800311576993436594716L
sbsg11
I18
sg12
I01
sg13
(lp1763
sg15
(lp1764
sg17
(dp1765
g19
I45
ssg20
(lp1766
sg22
I89
sba(i__main__
Person
p1767
(dp1768
g4
g5
(g6
g7
NtRp1769
(dp1770
g10
L50349070631054201311432683522052649500L
sbsg11
I19
sg12
I01
sg13
(lp1771
sg15
(lp1772
sg17
(dp1773
g19
I92
ssg20
(lp1774
sg22
I59
sba(i__main__
Person
p1775
(dp1776
g4
g5
(g6
g7
NtRp1777
(dp1778
g10
L50349070710282363825484788983156765212L
sbsg11
I25
sg12
I01
sg13
(lp1779
sg15
(lp1780
sg17
(dp1781
g19
I28
ssg20
(lp1782
sg22
I83
sba(i__main__
Person
p1783
(dp1784
g4
g5
(g6
g7
NtRp1785
(dp1786
g10
L50349070789510526340729785395560641052L
sbsg11
I29
sg12
I01
sg13
(lp1787
sg15
(lp1788
sg17
(dp1789
g19
I12
ssg20
(lp1790
sg22
I75
sba(i__main__
Person
p1791
(dp1792
g4
g5
(g6
g7
NtRp1793
(dp1794
g10
L50349070868738688854596961796965855772L
sbsg11
I26
sg12
I01
sg13
(lp1795
sg15
(lp1796
sg17
(dp1797
g19
I15
ssg20
(lp1798
sg22
I91
sba(i__main__
Person
p1799
(dp1800
g4
g5
(g6
g7
NtRp1801
(dp1802
g10
L50349070947966851371490838622940754460L
sbsg11
I22
sg12
I01
sg13
(lp1803
sg15
(lp1804
sg17
(dp1805
g19
I71
ssg20
(lp1806
sg22
I77
sba(i__main__
Person
p1807
(dp1808
g4
g5
(g6
g7
NtRp1809
(dp1810
g10
L50349071027195013884142324599932645916L
sbsg11
I21
sg12
I01
sg13
(lp1811
sg15
(lp1812
sg17
(dp1813
g19
I38
ssg20
(lp1814
sg22
I56
sba(i__main__
Person
p1815
(dp1816
g4
g5
(g6
g7
NtRp1817
(dp1818
g10
L50349071106423176396700642359633310236L
sbsg11
I21
sg12
I01
sg13
(lp1819
sg15
(lp1820
sg17
(dp1821
g19
I92
ssg20
(lp1822
sg22
I65
sba(i__main__
Person
p1823
(dp1824
g4
g5
(g6
g7
NtRp1825
(dp1826
g10
L50349071185651338911743821213735645724L
sbsg11
I22
sg12
I01
sg13
(lp1827
sg15
(lp1828
sg17
(dp1829
g19
I22
ssg20
(lp1830
sg22
I60
sba(i__main__
Person
p1831
(dp1832
g4
g5
(g6
g7
NtRp1833
(dp1834
g10
L50349071264879501424601909823633158684L
sbsg11
I21
sg12
I01
sg13
(lp1835
sg15
(lp1836
sg17
(dp1837
g19
I14
ssg20
(lp1838
sg22
I61
sba(i__main__
Person
p1839
(dp1840
g4
g5
(g6
g7
NtRp1841
(dp1842
g10
L50349071344107663940150617735907832348L
sbsg11
I26
sg12
I01
sg13
(lp1843
sg15
(lp1844
sg17
(dp1845
g19
I9
ssg20
(lp1846
sg22
I99
sba(i__main__
Person
p1847
(dp1848
g4
g5
(g6
g7
NtRp1849
(dp1850
g10
L50349071423335826456751479111126938140L
sbsg11
I22
sg12
I01
sg13
(lp1851
sg15
(lp1852
sg17
(dp1853
g19
I61
ssg20
(lp1854
sg22
I92
sba(i__main__
Person
p1855
(dp1856
g4
g5
(g6
g7
NtRp1857
(dp1858
g10
L50349862278854043840584424447263961628L
sbsg11
I20
sg12
I01
sg13
(lp1859
sg15
(lp1860
sg17
(dp1861
g19
I17
ssg20
(lp1862
sg22
I52
sba(i__main__
Person
p1863
(dp1864
g4
g5
(g6
g7
NtRp1865
(dp1866
g10
L50349862358082206358166226116319703580L
sbsg11
I25
sg12
I01
sg13
(lp1867
sg15
(lp1868
sg17
(dp1869
g19
I13
ssg20
(lp1870
sg22
I59
sba(i__main__
Person
p1871
(dp1872
g4
g5
(g6
g7
NtRp1873
(dp1874
g10
L50349862437310368871921938426947498524L
sbsg11
I24
sg12
I01
sg13
(lp1875
sg15
(lp1876
sg17
(dp1877
g19
I35
ssg20
(lp1878
sg22
I81
sba(i__main__
Person
p1879
(dp1880
g4
g5
(g6
g7
NtRp1881
(dp1882
g10
L50349862516538531382692327134582075932L
sbsg11
I20
sg12
I01
sg13
(lp1883
sg15
(lp1884
sg17
(dp1885
g19
I9
ssg20
(lp1886
sg22
I51
sba(i__main__
Person
p1887
(dp1888
g4
g5
(g6
g7
NtRp1889
(dp1890
g10
L50349862595766693896817334614654251548L
sbsg11
I21
sg12
I01
sg13
(lp1891
sg15
(lp1892
sg17
(dp1893
g19
I49
ssg20
(lp1894
sg22
I79
sba(i__main__
Person
p1895
(dp1896
g4
g5
(g6
g7
NtRp1897
(dp1898
g10
L50349862674994856414497934000535433756L
sbsg11
I22
sg12
I01
sg13
(lp1899
sg15
(lp1900
sg17
(dp1901
g19
I34
ssg20
(lp1902
sg22
I95
sba(i__main__
Person
p1903
(dp1904
g4
g5
(g6
g7
NtRp1905
(dp1906
g10
L50349862754223018929185328484075500060L
sbsg11
I29
sg12
I01
sg13
(lp1907
sg15
(lp1908
sg17
(dp1909
g19
I35
ssg20
(lp1910
sg22
I85
sba(i__main__
Person
p1911
(dp1912
g4
g5
(g6
g7
NtRp1913
(dp1914
g10
L50349862833451181443421800054925095452L
sbsg11
I29
sg12
I01
sg13
(lp1915
sg15
(lp1916
sg17
(dp1917
g19
I68
ssg20
(lp1918
sg22
I68
sba(i__main__
Person
p1919
(dp1920
g4
g5
(g6
g7
NtRp1921
(dp1922
g10
L50349862912679343958027003845265650204L
sbsg11
I30
sg12
I01
sg13
(lp1923
sg15
(lp1924
sg17
(dp1925
g19
I32
ssg20
(lp1926
sg22
I65
sba(i__main__
Person
p1927
(dp1928
g4
g5
(g6
g7
NtRp1929
(dp1930
g10
L50349862991907506472110634503761359388L
sbsg11
I27
sg12
I01
sg13
(lp1931
sg15
(lp1932
sg17
(dp1933
g19
I21
ssg20
(lp1934
sg22
I53
sba(i__main__
Person
p1935
(dp1936
g4
g5
(g6
g7
NtRp1937
(dp1938
g10
L50349863071135668986298129428663300636L
sbsg11
I24
sg12
I01
sg13
(lp1939
sg15
(lp1940
sg17
(dp1941
g19
I2
ssg20
(lp1942
sg22
I95
sba(i__main__
Person
p1943
(dp1944
g4
g5
(g6
g7
NtRp1945
(dp1946
g10
L50349863150363831500956250514625458716L
sbsg11
I25
sg12
I01
sg13
(lp1947
sg15
(lp1948
sg17
(dp1949
g19
I32
ssg20
(lp1950
sg22
I58
sba(i__main__
Person
p1951
(dp1952
g4
g5
(g6
g7
NtRp1953
(dp1954
g10
L50349863229591994014918846933135585820L
sbsg11
I30
sg12
I01
sg13
(lp1955
sg15
(lp1956
sg17
(dp1957
g19
I74
ssg20
(lp1958
sg22
I62
sba(i__main__
Person
p1959
(dp1960
g4
g5
(g6
g7
NtRp1961
(dp1962
g10
L50349863308820156529116474957199110684L
sbsg11
I30
sg12
I01
sg13
(lp1963
sg15
(lp1964
sg17
(dp1965
g19
I17
ssg20
(lp1966
sg22
I84
sba(i__main__
Person
p1967
(dp1968
g4
g5
(g6
g7
NtRp1969
(dp1970
g10
L50349863388048319042826588321599779356L
sbsg11
I29
sg12
I01
sg13
(lp1971
sg15
(lp1972
sg17
(dp1973
g19
I91
ssg20
(lp1974
sg22
I83
sba(i__main__
Person
p1975
(dp1976
g4
g5
(g6
g7
NtRp1977
(dp1978
g10
L50349863467276481556544864460325057052L
sbsg11
I22
sg12
I01
sg13
(lp1979
sg15
(lp1980
sg17
(dp1981
g19
I16
ssg20
(lp1982
sg22
I68
sba(i__main__
Person
p1983
(dp1984
g4
g5
(g6
g7
NtRp1985
(dp1986
g10
L50349863546504644071496563946996429340L
sbsg11
I21
sg12
I01
sg13
(lp1987
sg15
(lp1988
sg17
(dp1989
g19
I31
ssg20
(lp1990
sg22
I98
sba(i__main__
Person
p1991
(dp1992
g4
g5
(g6
g7
NtRp1993
(dp1994
g10
L50349863625732806586648955092062499356L
sbsg11
I29
sg12
I01
sg13
(lp1995
sg15
(lp1996
sg17
(dp1997
g19
I59
ssg20
(lp1998
sg22
I63
sba(i__main__
Person
p1999
(dp2000
g4
g5
(g6
g7
NtRp2001
(dp2002
g10
L50350654718935511512982179233052291612L
sbsg11
I23
sg12
I01
sg13
(lp2003
sg15
(lp2004
sg17
(dp2005
g19
I30
ssg20
(lp2006
sg22
I81
sba(i__main__
Person
p2007
(dp2008
g4
g5
(g6
g7
NtRp2009
(dp2010
g10
L50350654798163674028103326655703478812L
sbsg11
I30
sg12
I01
sg13
(lp2011
sg15
(lp2012
sg17
(dp2013
g19
I24
ssg20
(lp2014
sg22
I86
sba(i__main__
Person
p2015
(dp2016
g4
g5
(g6
g7
NtRp2017
(dp2018
g10
L50350654877391836544485200499041694236L
sbsg11
I29
sg12
I01
sg13
(lp2019
sg15
(lp2020
sg17
(dp2021
g19
I83
ssg20
(lp2022
sg22
I79
sba(i__main__
Person
p2023
(dp2024
g4
g5
(g6
g7
NtRp2025
(dp2026
g10
L50350654956619999058098767946430607900L
sbsg11
I19
sg12
I01
sg13
(lp2027
sg15
(lp2028
sg17
(dp2029
g19
I36
ssg20
(lp2030
sg22
I55
sba(i__main__
Person
p2031
(dp2032
g4
g5
(g6
g7
NtRp2033
(dp2034
g10
L50352239202957634285981434026175033884L
sbsg11
I23
sg12
I01
sg13
(lp2035
sg15
(lp2036
sg17
(dp2037
g19
I35
ssg20
(lp2038
sg22
I77
sba(i__main__
Person
p2039
(dp2040
g4
g5
(g6
g7
NtRp2041
(dp2042
g10
L50352239282185796801920829206124098076L
sbsg11
I23
sg12
I01
sg13
(lp2043
sg15
(lp2044
sg17
(dp2045
g19
I35
ssg20
(lp2046
sg22
I85
sba(i__main__
Person
p2047
(dp2048
g4
g5
(g6
g7
NtRp2049
(dp2050
g10
L50352239361413959313500176996825100828L
sbsg11
I28
sg12
I01
sg13
(lp2051
sg15
(lp2052
sg17
(dp2053
g19
I78
ssg20
(lp2054
sg22
I82
sba(i__main__
Person
p2055
(dp2056
g4
g5
(g6
g7
NtRp2057
(dp2058
g10
L50352239440642121827573111606205805084L
sbsg11
I26
sg12
I01
sg13
(lp2059
sg15
(lp2060
sg17
(dp2061
g19
I61
ssg20
(lp2062
sg22
I60
sba(i__main__
Person
p2063
(dp2064
g4
g5
(g6
g7
NtRp2065
(dp2066
g10
L50353031643039101957676345795116855836L
sbsg11
I26
sg12
I01
sg13
(lp2067
sg15
(lp2068
sg17
(dp2069
g19
I65
ssg20
(lp2070
sg22
I73
sba(i__main__
Person
p2071
(dp2072
g4
g5
(g6
g7
NtRp2073
(dp2074
g10
L50353031722267264471866655469785903644L
sbsg11
I26
sg12
I01
sg13
(lp2075
sg15
(lp2076
sg17
(dp2077
g19
I67
ssg20
(lp2078
sg22
I92
sba(i__main__
Person
p2079
(dp2080
g4
g5
(g6
g7
NtRp2081
(dp2082
g10
L50353031801495426985348774103050940956L
sbsg11
I19
sg12
I01
sg13
(lp2083
sg15
(lp2084
sg17
(dp2085
g19
I23
ssg20
(lp2086
sg22
I60
sba(i__main__
Person
p2087
(dp2088
g4
g5
(g6
g7
NtRp2089
(dp2090
g10
L50353031880723589498793738039390171676L
sbsg11
I30
sg12
I01
sg13
(lp2091
sg15
(lp2092
sg17
(dp2093
g19
I88
ssg20
(lp2094
sg22
I82
sba(i__main__
Person
p2095
(dp2096
g4
g5
(g6
g7
NtRp2097
(dp2098
g10
L50353031959951752017333399054192275996L
sbsg11
I21
sg12
I01
sg13
(lp2099
sg15
(lp2100
sg17
(dp2101
g19
I99
ssg20
(lp2102
sg22
I75
sba(i__main__
Person
p2103
(dp2104
g4
g5
(g6
g7
NtRp2105
(dp2106
g10
L50353032039179914530541079585164423708L
sbsg11
I21
sg12
I01
sg13
(lp2107
sg15
(lp2108
sg17
(dp2109
g19
I3
ssg20
(lp2110
sg22
I50
sba(i__main__
Person
p2111
(dp2112
g4
g5
(g6
g7
NtRp2113
(dp2114
g10
L50353032118408077044714500761230832156L
sbsg11
I30
sg12
I01
sg13
(lp2115
sg15
(lp2116
sg17
(dp2117
g19
I18
ssg20
(lp2118
sg22
I86
sba(i__main__
Person
p2119
(dp2120
g4
g5
(g6
g7
NtRp2121
(dp2122
g10
L50353032197636239557955113864478126620L
sbsg11
I20
sg12
I01
sg13
(lp2123
sg15
(lp2124
sg17
(dp2125
g19
I48
ssg20
(lp2126
sg22
I72
sba(i__main__
Person
p2127
(dp2128
g4
g5
(g6
g7
NtRp2129
(dp2130
g10
L50353032276864402070983213360308875804L
sbsg11
I20
sg12
I01
sg13
(lp2131
sg15
(lp2132
sg17
(dp2133
g19
I50
ssg20
(lp2134
sg22
I76
sba(i__main__
Person
p2135
(dp2136
g4
g5
(g6
g7
NtRp2137
(dp2138
g10
L50353032356092564586302237691587654172L
sbsg11
I29
sg12
I01
sg13
(lp2139
sg15
(lp2140
sg17
(dp2141
g19
I89
ssg20
(lp2142
sg22
I76
sba(i__main__
Person
p2143
(dp2144
g4
g5
(g6
g7
NtRp2145
(dp2146
g10
L50353032435320727102843989321697522204L
sbsg11
I25
sg12
I01
sg13
(lp2147
sg15
(lp2148
sg17
(dp2149
g19
I98
ssg20
(lp2150
sg22
I98
sba(i__main__
Person
p2151
(dp2152
g4
g5
(g6
g7
NtRp2153
(dp2154
g10
L50353032514548889616736779945983406620L
sbsg11
I23
sg12
I01
sg13
(lp2155
sg15
(lp2156
sg17
(dp2157
g19
I43
ssg20
(lp2158
sg22
I67
sba(i__main__
Person
p2159
(dp2160
g4
g5
(g6
g7
NtRp2161
(dp2162
g10
L50353032593777052129261320708478792220L
sbsg11
I29
sg12
I01
sg13
(lp2163
sg15
(lp2164
sg17
(dp2165
g19
I48
ssg20
(lp2166
sg22
I59
sba(i__main__
Person
p2167
(dp2168
g4
g5
(g6
g7
NtRp2169
(dp2170
g10
L50353032673005214641680026879730971164L
sbsg11
I24
sg12
I01
sg13
(lp2171
sg15
(lp2172
sg17
(dp2173
g19
I59
ssg20
(lp2174
sg22
I67
sba(i__main__
Person
p2175
(dp2176
g4
g5
(g6
g7
NtRp2177
(dp2178
g10
L50353032752233377159331915817987666460L
sbsg11
I19
sg12
I01
sg13
(lp2179
sg15
(lp2180
sg17
(dp2181
g19
I15
ssg20
(lp2182
sg22
I78
sba(i__main__
Person
p2183
(dp2184
g4
g5
(g6
g7
NtRp2185
(dp2186
g10
L50353032831461539672606024443463528988L
sbsg11
I23
sg12
I01
sg13
(lp2187
sg15
(lp2188
sg17
(dp2189
g19
I18
ssg20
(lp2190
sg22
I88
sba(i__main__
Person
p2191
(dp2192
g4
g5
(g6
g7
NtRp2193
(dp2194
g10
L50353032910689702185361656161838363164L
sbsg11
I21
sg12
I01
sg13
(lp2195
sg15
(lp2196
sg17
(dp2197
g19
I73
ssg20
(lp2198
sg22
I81
sba(i__main__
Person
p2199
(dp2200
g4
g5
(g6
g7
NtRp2201
(dp2202
g10
L50353032989917864700825077156169708060L
sbsg11
I22
sg12
I01
sg13
(lp2203
sg15
(lp2204
sg17
(dp2205
g19
I88
ssg20
(lp2206
sg22
I68
sba(i__main__
Person
p2207
(dp2208
g4
g5
(g6
g7
NtRp2209
(dp2210
g10
L50353823845436082088856503244922876444L
sbsg11
I20
sg12
I01
sg13
(lp2211
sg15
(lp2212
sg17
(dp2213
g19
I53
ssg20
(lp2214
sg22
I65
sba(i__main__
Person
p2215
(dp2216
g4
g5
(g6
g7
NtRp2217
(dp2218
g10
L50353823924664244603201624156782785052L
sbsg11
I29
sg12
I01
sg13
(lp2219
sg15
(lp2220
sg17
(dp2221
g19
I40
ssg20
(lp2222
sg22
I64
sba(i__main__
Person
p2223
(dp2224
g4
g5
(g6
g7
NtRp2225
(dp2226
g10
L50353824003892407115009811103549551132L
sbsg11
I24
sg12
I01
sg13
(lp2227
sg15
(lp2228
sg17
(dp2229
g19
I81
ssg20
(lp2230
sg22
I75
sba(i__main__
Person
p2231
(dp2232
g4
g5
(g6
g7
NtRp2233
(dp2234
g10
L50353824083120569632178688981770760732L
sbsg11
I18
sg12
I01
sg13
(lp2235
sg15
(lp2236
sg17
(dp2237
g19
I43
ssg20
(lp2238
sg22
I85
sba(i__main__
Person
p2239
(dp2240
g4
g5
(g6
g7
NtRp2241
(dp2242
g10
L50353824162348732144791049936999871004L
sbsg11
I21
sg12
I01
sg13
(lp2243
sg15
(lp2244
sg17
(dp2245
g19
I50
ssg20
(lp2246
sg22
I100
sba(i__main__
Person
p2247
(dp2248
g4
g5
(g6
g7
NtRp2249
(dp2250
g10
L50353824241576894657704870592286093852L
sbsg11
I22
sg12
I01
sg13
(lp2251
sg15
(lp2252
sg17
(dp2253
g19
I45
ssg20
(lp2254
sg22
I75
sba(i__main__
Person
p2255
(dp2256
g4
g5
(g6
g7
NtRp2257
(dp2258
g10
L50353824320805057174965227837938266652L
sbsg11
I21
sg12
I01
sg13
(lp2259
sg15
(lp2260
sg17
(dp2261
g19
I79
ssg20
(lp2262
sg22
I54
sba(i__main__
Person
p2263
(dp2264
g4
g5
(g6
g7
NtRp2265
(dp2266
g10
L50353824400033219687060519260949901852L
sbsg11
I26
sg12
I01
sg13
(lp2267
sg15
(lp2268
sg17
(dp2269
g19
I35
ssg20
(lp2270
sg22
I84
sba(i__main__
Person
p2271
(dp2272
g4
g5
(g6
g7
NtRp2273
(dp2274
g10
L50353824479261382202732513213023842844L
sbsg11
I25
sg12
I01
sg13
(lp2275
sg15
(lp2276
sg17
(dp2277
g19
I65
ssg20
(lp2278
sg22
I51
sba(i__main__
Person
p2279
(dp2280
g4
g5
(g6
g7
NtRp2281
(dp2282
g10
L50353824558489544715043132993219129884L
sbsg11
I22
sg12
I01
sg13
(lp2283
sg15
(lp2284
sg17
(dp2285
g19
I97
ssg20
(lp2286
sg22
I52
sba(i__main__
Person
p2287
(dp2288
g4
g5
(g6
g7
NtRp2289
(dp2290
g10
L50353824637717707231032912193999401500L
sbsg11
I29
sg12
I01
sg13
(lp2291
sg15
(lp2292
sg17
(dp2293
g19
I14
ssg20
(lp2294
sg22
I59
sba(i__main__
Person
p2295
(dp2296
g4
g5
(g6
g7
NtRp2297
(dp2298
g10
L50353824716945869744156150231958352412L
sbsg11
I18
sg12
I01
sg13
(lp2299
sg15
(lp2300
sg17
(dp2301
g19
I53
ssg20
(lp2302
sg22
I75
sba(i__main__
Person
p2303
(dp2304
g4
g5
(g6
g7
NtRp2305
(dp2306
g10
L50353824796174032260834417225772888604L
sbsg11
I28
sg12
I01
sg13
(lp2307
sg15
(lp2308
sg17
(dp2309
g19
I9
ssg20
(lp2310
sg22
I91
sba(i__main__
Person
p2311
(dp2312
g4
g5
(g6
g7
NtRp2313
(dp2314
g10
L50353824875402194775055689147880108572L
sbsg11
I28
sg12
I01
sg13
(lp2315
sg15
(lp2316
sg17
(dp2317
g19
I40
ssg20
(lp2318
sg22
I50
sba(i__main__
Person
p2319
(dp2320
g4
g5
(g6
g7
NtRp2321
(dp2322
g10
L50353824954630357288948198297189282332L
sbsg11
I22
sg12
I01
sg13
(lp2323
sg15
(lp2324
sg17
(dp2325
g19
I30
ssg20
(lp2326
sg22
I74
sba(i__main__
Person
p2327
(dp2328
g4
g5
(g6
g7
NtRp2329
(dp2330
g10
L50353825033858519799559835117959049756L
sbsg11
I24
sg12
I01
sg13
(lp2331
sg15
(lp2332
sg17
(dp2333
g19
I40
ssg20
(lp2334
sg22
I50
sba(i__main__
Person
p2335
(dp2336
g4
g5
(g6
g7
NtRp2337
(dp2338
g10
L50353825113086682315128809228556890652L
sbsg11
I26
sg12
I01
sg13
(lp2339
sg15
(lp2340
sg17
(dp2341
g19
I58
ssg20
(lp2342
sg22
I86
sba(i__main__
Person
p2343
(dp2344
g4
g5
(g6
g7
NtRp2345
(dp2346
g10
L50354616127061224732516728410903999004L
sbsg11
I20
sg12
I01
sg13
(lp2347
sg15
(lp2348
sg17
(dp2349
g19
I30
ssg20
(lp2350
sg22
I67
sba(i__main__
Person
p2351
(dp2352
g4
g5
(g6
g7
NtRp2353
(dp2354
g10
L50354616206289387246183213153914515996L
sbsg11
I19
sg12
I01
sg13
(lp2355
sg15
(lp2356
sg17
(dp2357
g19
I63
ssg20
(lp2358
sg22
I84
sba(i__main__
Person
p2359
(dp2360
g4
g5
(g6
g7
NtRp2361
(dp2362
g10
L50354616285517549761100009743473766940L
sbsg11
I21
sg12
I01
sg13
(lp2363
sg15
(lp2364
sg17
(dp2365
g19
I72
ssg20
(lp2366
sg22
I77
sba(i__main__
Person
p2367
(dp2368
g4
g5
(g6
g7
NtRp2369
(dp2370
g10
L50354616364745712272627566138460008988L
sbsg11
I26
sg12
I01
sg13
(lp2371
sg15
(lp2372
sg17
(dp2373
g19
I3
ssg20
(lp2374
sg22
I62
sba(i__main__
Person
p2375
(dp2376
g4
g5
(g6
g7
NtRp2377
(dp2378
g10
L50354616443973874789068268251930751516L
sbsg11
I28
sg12
I01
sg13
(lp2379
sg15
(lp2380
sg17
(dp2381
g19
I60
ssg20
(lp2382
sg22
I52
sba(i__main__
Person
p2383
(dp2384
g4
g5
(g6
g7
NtRp2385
(dp2386
g10
L50354616523202037303847705052855202332L
sbsg11
I23
sg12
I01
sg13
(lp2387
sg15
(lp2388
sg17
(dp2389
g19
I92
ssg20
(lp2390
sg22
I62
sba(i__main__
Person
p2391
(dp2392
g4
g5
(g6
g7
NtRp2393
(dp2394
g10
L50354616602430199815155992440983843356L
sbsg11
I24
sg12
I01
sg13
(lp2395
sg15
(lp2396
sg17
(dp2397
g19
I36
ssg20
(lp2398
sg22
I92
sba(i__main__
Person
p2399
(dp2400
g4
g5
(g6
g7
NtRp2401
(dp2402
g10
L50354616681658362329840009224803381788L
sbsg11
I19
sg12
I01
sg13
(lp2403
sg15
(lp2404
sg17
(dp2405
g19
I93
ssg20
(lp2406
sg22
I89
sba(i__main__
Person
p2407
(dp2408
g4
g5
(g6
g7
NtRp2409
(dp2410
g10
L50354616760886524842729904507069198876L
sbsg11
I29
sg12
I01
sg13
(lp2411
sg15
(lp2412
sg17
(dp2413
g19
I28
ssg20
(lp2414
sg22
I58
sba(i__main__
Person
p2415
(dp2416
g4
g5
(g6
g7
NtRp2417
(dp2418
g10
L50354616840114687360669742346500895260L
sbsg11
I21
sg12
I01
sg13
(lp2419
sg15
(lp2420
sg17
(dp2421
g19
I36
ssg20
(lp2422
sg22
I88
sba(i__main__
Person
p2423
(dp2424
g4
g5
(g6
g7
NtRp2425
(dp2426
g10
L50354616919342849873563578278440661532L
sbsg11
I21
sg12
I01
sg13
(lp2427
sg15
(lp2428
sg17
(dp2429
g19
I18
ssg20
(lp2430
sg22
I97
sba(i__main__
Person
p2431
(dp2432
g4
g5
(g6
g7
NtRp2433
(dp2434
g10
L50354616998571012388820678114843095580L
sbsg11
I19
sg12
I01
sg13
(lp2435
sg15
(lp2436
sg17
(dp2437
g19
I9
ssg20
(lp2438
sg22
I80
sba(i__main__
Person
p2439
(dp2440
g4
g5
(g6
g7
NtRp2441
(dp2442
g10
L50354617077799174903340032037286900252L
sbsg11
I25
sg12
I01
sg13
(lp2443
sg15
(lp2444
sg17
(dp2445
g19
I86
ssg20
(lp2446
sg22
I100
sba(i__main__
Person
p2447
(dp2448
g4
g5
(g6
g7
NtRp2449
(dp2450
g10
L50354617157027337417620413704503357980L
sbsg11
I24
sg12
I01
sg13
(lp2451
sg15
(lp2452
sg17
(dp2453
g19
I37
ssg20
(lp2454
sg22
I66
sba(i__main__
Person
p2455
(dp2456
g4
g5
(g6
g7
NtRp2457
(dp2458
g10
L50354617236255499928694513912008733212L
sbsg11
I30
sg12
I01
sg13
(lp2459
sg15
(lp2460
sg17
(dp2461
g19
I72
ssg20
(lp2462
sg22
I84
sba(i__main__
Person
p2463
(dp2464
g4
g5
(g6
g7
NtRp2465
(dp2466
g10
L50354617315483662443604836577103639068L
sbsg11
I29
sg12
I01
sg13
(lp2467
sg15
(lp2468
sg17
(dp2469
g19
I84
ssg20
(lp2470
sg22
I56
sba(i__main__
Person
p2471
(dp2472
g4
g5
(g6
g7
NtRp2473
(dp2474
g10
L50354617394711824958733302349149303324L
sbsg11
I24
sg12
I01
sg13
(lp2475
sg15
(lp2476
sg17
(dp2477
g19
I67
ssg20
(lp2478
sg22
I76
sba(i__main__
Person
p2479
(dp2480
g4
g5
(g6
g7
NtRp2481
(dp2482
g10
L50354617473939987474955861355669287452L
sbsg11
I19
sg12
I01
sg13
(lp2483
sg15
(lp2484
sg17
(dp2485
g19
I95
ssg20
(lp2486
sg22
I63
sba(i__main__
Person
p2487
(dp2488
g4
g5
(g6
g7
NtRp2489
(dp2490
g10
L50355408329458204859575529251712594460L
sbsg11
I18
sg12
I01
sg13
(lp2491
sg15
(lp2492
sg17
(dp2493
g19
I91
ssg20
(lp2494
sg22
I57
sba(i__main__
Person
p2495
(dp2496
g4
g5
(g6
g7
NtRp2497
(dp2498
g10
L50355408408686367372903681072716902940L
sbsg11
I21
sg12
I01
sg13
(lp2499
sg15
(lp2500
sg17
(dp2501
g19
I81
ssg20
(lp2502
sg22
I73
sba(i__main__
Person
p2503
(dp2504
g4
g5
(g6
g7
NtRp2505
(dp2506
g10
L50355408487914529887660318400527790620L
sbsg11
I28
sg12
I01
sg13
(lp2507
sg15
(lp2508
sg17
(dp2509
g19
I23
ssg20
(lp2510
sg22
I94
sba(i__main__
Person
p2511
(dp2512
g4
g5
(g6
g7
NtRp2513
(dp2514
g10
L50355408567142692402262988916077949468L
sbsg11
I24
sg12
I01
sg13
(lp2515
sg15
(lp2516
sg17
(dp2517
g19
I55
ssg20
(lp2518
sg22
I84
sba(i__main__
Person
p2519
(dp2520
g4
g5
(g6
g7
NtRp2521
(dp2522
g10
L50355408646370854914686761636910920220L
sbsg11
I21
sg12
I01
sg13
(lp2523
sg15
(lp2524
sg17
(dp2525
g19
I78
ssg20
(lp2526
sg22
I96
sba(i__main__
Person
p2527
(dp2528
g4
g5
(g6
g7
NtRp2529
(dp2530
g10
L50355408725599017431274675163201335836L
sbsg11
I22
sg12
I01
sg13
(lp2531
sg15
(lp2532
sg17
(dp2533
g19
I53
ssg20
(lp2534
sg22
I55
sba(i__main__
Person
p2535
(dp2536
g4
g5
(g6
g7
NtRp2537
(dp2538
g10
L50355408804827179943512674399405273628L
sbsg11
I18
sg12
I01
sg13
(lp2539
sg15
(lp2540
sg17
(dp2541
g19
I36
ssg20
(lp2542
sg22
I82
sba(i__main__
Person
p2543
(dp2544
g4
g5
(g6
g7
NtRp2545
(dp2546
g10
L50355408884055342460825948940679049756L
sbsg11
I21
sg12
I01
sg13
(lp2547
sg15
(lp2548
sg17
(dp2549
g19
I88
ssg20
(lp2550
sg22
I67
sba(i__main__
Person
p2551
(dp2552
g4
g5
(g6
g7
NtRp2553
(dp2554
g10
L50355408963283504975685606109966037532L
sbsg11
I20
sg12
I01
sg13
(lp2555
sg15
(lp2556
sg17
(dp2557
g19
I28
ssg20
(lp2558
sg22
I75
sba(i__main__
Person
p2559
(dp2560
g4
g5
(g6
g7
NtRp2561
(dp2562
g10
L50355409042511667488241390594876305948L
sbsg11
I20
sg12
I01
sg13
(lp2563
sg15
(lp2564
sg17
(dp2565
g19
I21
ssg20
(lp2566
sg22
I67
sba(i__main__
Person
p2567
(dp2568
g4
g5
(g6
g7
NtRp2569
(dp2570
g10
L50355409121739830003971086917175931420L
sbsg11
I27
sg12
I01
sg13
(lp2571
sg15
(lp2572
sg17
(dp2573
g19
I17
ssg20
(lp2574
sg22
I59
sba(i__main__
Person
p2575
(dp2576
g4
g5
(g6
g7
NtRp2577
(dp2578
g10
L50355409200967992515652891599399612956L
sbsg11
I23
sg12
I01
sg13
(lp2579
sg15
(lp2580
sg17
(dp2581
g19
I7
ssg20
(lp2582
sg22
I87
sba(i__main__
Person
p2583
(dp2584
g4
g5
(g6
g7
NtRp2585
(dp2586
g10
L50355409280196155032452192833199731228L
sbsg11
I27
sg12
I01
sg13
(lp2587
sg15
(lp2588
sg17
(dp2589
g19
I85
ssg20
(lp2590
sg22
I54
sba(i__main__
Person
p2591
(dp2592
g4
g5
(g6
g7
NtRp2593
(dp2594
g10
L50355409359424317545749945356719288860L
sbsg11
I19
sg12
I01
sg13
(lp2595
sg15
(lp2596
sg17
(dp2597
g19
I9
ssg20
(lp2598
sg22
I81
sba(i__main__
Person
p2599
(dp2600
g4
g5
(g6
g7
NtRp2601
(dp2602
g10
L50355409438652480059057268029447008796L
sbsg11
I21
sg12
I01
sg13
(lp2603
sg15
(lp2604
sg17
(dp2605
g19
I97
ssg20
(lp2606
sg22
I60
sba(i__main__
Person
p2607
(dp2608
g4
g5
(g6
g7
NtRp2609
(dp2610
g10
L50355409517880642573175238635101418012L
sbsg11
I30
sg12
I01
sg13
(lp2611
sg15
(lp2612
sg17
(dp2613
g19
I96
ssg20
(lp2614
sg22
I59
sba(i__main__
Person
p2615
(dp2616
g4
g5
(g6
g7
NtRp2617
(dp2618
g10
L50355409597108805089745982187812483612L
sbsg11
I26
sg12
I01
sg13
(lp2619
sg15
(lp2620
sg17
(dp2621
g19
I68
ssg20
(lp2622
sg22
I94
sba(i__main__
Person
p2623
(dp2624
g4
g5
(g6
g7
NtRp2625
(dp2626
g10
L50355409676336967604364978252011860508L
sbsg11
I22
sg12
I01
sg13
(lp2627
sg15
(lp2628
sg17
(dp2629
g19
I59
ssg20
(lp2630
sg22
I76
sba(i__main__
Person
p2631
(dp2632
g4
g5
(g6
g7
NtRp2633
(dp2634
g10
L50356200769539672532128376749668495900L
sbsg11
I19
sg12
I01
sg13
(lp2635
sg15
(lp2636
sg17
(dp2637
g19
I42
ssg20
(lp2638
sg22
I80
sba(i__main__
Person
p2639
(dp2640
g4
g5
(g6
g7
NtRp2641
(dp2642
g10
L50356200848767835044124307505901269532L
sbsg11
I27
sg12
I01
sg13
(lp2643
sg15
(lp2644
sg17
(dp2645
g19
I40
ssg20
(lp2646
sg22
I89
sba(i__main__
Person
p2647
(dp2648
g4
g5
(g6
g7
NtRp2649
(dp2650
g10
L50356200927995997558356838427076915740L
sbsg11
I24
sg12
I01
sg13
(lp2651
sg15
(lp2652
sg17
(dp2653
g19
I39
ssg20
(lp2654
sg22
I74
sba(i__main__
Person
p2655
(dp2656
g4
g5
(g6
g7
NtRp2657
(dp2658
g10
L50356201007224160074228398137638711836L
sbsg11
I23
sg12
I01
sg13
(lp2659
sg15
(lp2660
sg17
(dp2661
g19
I37
ssg20
(lp2662
sg22
I74
sba(i__main__
Person
p2663
(dp2664
g4
g5
(g6
g7
NtRp2665
(dp2666
g10
L50356201086452322589888288665714094620L
sbsg11
I24
sg12
I01
sg13
(lp2667
sg15
(lp2668
sg17
(dp2669
g19
I13
ssg20
(lp2670
sg22
I95
sba(i__main__
Person
p2671
(dp2672
g4
g5
(g6
g7
NtRp2673
(dp2674
g10
L50356201165680485102240848217439269404L
sbsg11
I27
sg12
I01
sg13
(lp2675
sg15
(lp2676
sg17
(dp2677
g19
I29
ssg20
(lp2678
sg22
I84
sba(i__main__
Person
p2679
(dp2680
g4
g5
(g6
g7
NtRp2681
(dp2682
g10
L50356201244908647617685973338284421660L
sbsg11
I26
sg12
I01
sg13
(lp2683
sg15
(lp2684
sg17
(dp2685
g19
I47
ssg20
(lp2686
sg22
I60
sba(i__main__
Person
p2687
(dp2688
g4
g5
(g6
g7
NtRp2689
(dp2690
g10
L50356201324136810129370592770275209756L
sbsg11
I22
sg12
I01
sg13
(lp2691
sg15
(lp2692
sg17
(dp2693
g19
I67
ssg20
(lp2694
sg22
I92
sba(i__main__
Person
p2695
(dp2696
g4
g5
(g6
g7
NtRp2697
(dp2698
g10
L50356201403364972647192211119488430620L
sbsg11
I25
sg12
I01
sg13
(lp2699
sg15
(lp2700
sg17
(dp2701
g19
I98
ssg20
(lp2702
sg22
I98
sba(i__main__
Person
p2703
(dp2704
g4
g5
(g6
g7
NtRp2705
(dp2706
g10
L50356201482593135159233740821948330524L
sbsg11
I20
sg12
I01
sg13
(lp2707
sg15
(lp2708
sg17
(dp2709
g19
I87
ssg20
(lp2710
sg22
I66
sba(i__main__
Person
p2711
(dp2712
g4
g5
(g6
g7
NtRp2713
(dp2714
g10
L50356201561821297673706369898258166300L
sbsg11
I18
sg12
I01
sg13
(lp2715
sg15
(lp2716
sg17
(dp2717
g19
I8
ssg20
(lp2718
sg22
I81
sba(i__main__
Person
p2719
(dp2720
g4
g5
(g6
g7
NtRp2721
(dp2722
g10
L50356201641049460189928928904778150428L
sbsg11
I24
sg12
I01
sg13
(lp2723
sg15
(lp2724
sg17
(dp2725
g19
I70
ssg20
(lp2726
sg22
I68
sba(i__main__
Person
p2727
(dp2728
g4
g5
(g6
g7
NtRp2729
(dp2730
g10
L50356201720277622703461150083897684508L
sbsg11
I20
sg12
I01
sg13
(lp2731
sg15
(lp2732
sg17
(dp2733
g19
I10
ssg20
(lp2734
sg22
I70
sba(i__main__
Person
p2735
(dp2736
g4
g5
(g6
g7
NtRp2737
(dp2738
g10
L50356201799505785217359851682694492700L
sbsg11
I29
sg12
I01
sg13
(lp2739
sg15
(lp2740
sg17
(dp2741
g19
I45
ssg20
(lp2742
sg22
I51
sba(i__main__
Person
p2743
(dp2744
g4
g5
(g6
g7
NtRp2745
(dp2746
g10
L50356201878733947731949011399362540060L
sbsg11
I20
sg12
I01
sg13
(lp2747
sg15
(lp2748
sg17
(dp2749
g19
I85
ssg20
(lp2750
sg22
I95
sba(i__main__
Person
p2751
(dp2752
g4
g5
(g6
g7
NtRp2753
(dp2754
g10
L50356992971936652659690173373859033628L
sbsg11
I18
sg12
I01
sg13
(lp2755
sg15
(lp2756
sg17
(dp2757
g19
I79
ssg20
(lp2758
sg22
I54
sba(i__main__
Person
p2759
(dp2760
g4
g5
(g6
g7
NtRp2761
(dp2762
g10
L50356993051164815176105542739425817116L
sbsg11
I27
sg12
I01
sg13
(lp2763
sg15
(lp2764
sg17
(dp2765
g19
I43
ssg20
(lp2766
sg22
I92
sba(i__main__
Person
p2767
(dp2768
g4
g5
(g6
g7
NtRp2769
(dp2770
g10
L50356993130392977688646690525547131420L
sbsg11
I25
sg12
I01
sg13
(lp2771
sg15
(lp2772
sg17
(dp2773
g19
I68
ssg20
(lp2774
sg22
I95
sba(i__main__
Person
p2775
(dp2776
g4
g5
(g6
g7
NtRp2777
(dp2778
g10
L50356993209621140201843393532427563548L
sbsg11
I20
sg12
I01
sg13
(lp2779
sg15
(lp2780
sg17
(dp2781
g19
I26
ssg20
(lp2782
sg22
I78
sba(i__main__
Person
p2783
(dp2784
g4
g5
(g6
g7
NtRp2785
(dp2786
g10
L50356993288849302715822315499586908700L
sbsg11
I18
sg12
I01
sg13
(lp2787
sg15
(lp2788
sg17
(dp2789
g19
I62
ssg20
(lp2790
sg22
I97
sba(i__main__
Person
p2791
(dp2792
g4
g5
(g6
g7
NtRp2793
(dp2794
g10
L50356993368077465230979491719257059868L
sbsg11
I26
sg12
I01
sg13
(lp2795
sg15
(lp2796
sg17
(dp2797
g19
I63
ssg20
(lp2798
sg22
I95
sba(i__main__
Person
p2799
(dp2800
g4
g5
(g6
g7
NtRp2801
(dp2802
g10
L50356993447305627748128103399155102236L
sbsg11
I23
sg12
I01
sg13
(lp2803
sg15
(lp2804
sg17
(dp2805
g19
I94
ssg20
(lp2806
sg22
I96
sba(i__main__
Person
p2807
(dp2808
g4
g5
(g6
g7
NtRp2809
(dp2810
g10
L50356993526533790259655096844187922972L
sbsg11
I21
sg12
I01
sg13
(lp2811
sg15
(lp2812
sg17
(dp2813
g19
I69
ssg20
(lp2814
sg22
I73
sba(i__main__
Person
p2815
(dp2816
g4
g5
(g6
g7
NtRp2817
(dp2818
g10
L50356993605761952775405622314764136988L
sbsg11
I28
sg12
I01
sg13
(lp2819
sg15
(lp2820
sg17
(dp2821
g19
I5
ssg20
(lp2822
sg22
I54
sba(i__main__
Person
p2823
(dp2824
g4
g5
(g6
g7
NtRp2825
(dp2826
g10
L50356993684990115288708441387864486428L
sbsg11
I20
sg12
I01
sg13
(lp2827
sg15
(lp2828
sg17
(dp2829
g19
I91
ssg20
(lp2830
sg22
I83
sba(i__main__
Person
p2831
(dp2832
g4
g5
(g6
g7
NtRp2833
(dp2834
g10
L50356993764218277805247096793230537244L
sbsg11
I30
sg12
I01
sg13
(lp2835
sg15
(lp2836
sg17
(dp2837
g19
I77
ssg20
(lp2838
sg22
I55
sba(i__main__
Person
p2839
(dp2840
g4
g5
(g6
g7
NtRp2841
(dp2842
g10
L50356993843446440318106029828058182172L
sbsg11
I26
sg12
I01
sg13
(lp2843
sg15
(lp2844
sg17
(dp2845
g19
I25
ssg20
(lp2846
sg22
I78
sba(i__main__
Person
p2847
(dp2848
g4
g5
(g6
g7
NtRp2849
(dp2850
g10
L50356993922674602833204659252572516892L
sbsg11
I18
sg12
I01
sg13
(lp2851
sg15
(lp2852
sg17
(dp2853
g19
I69
ssg20
(lp2854
sg22
I94
sba(i__main__
Person
p2855
(dp2856
g4
g5
(g6
g7
NtRp2857
(dp2858
g10
L50356994001902765347579616511963755036L
sbsg11
I18
sg12
I01
sg13
(lp2859
sg15
(lp2860
sg17
(dp2861
g19
I8
ssg20
(lp2862
sg22
I72
sba(i__main__
Person
p2863
(dp2864
g4
g5
(g6
g7
NtRp2865
(dp2866
g10
L50356994081130927860557050511986586140L
sbsg11
I28
sg12
I01
sg13
(lp2867
sg15
(lp2868
sg17
(dp2869
g19
I44
ssg20
(lp2870
sg22
I60
sba(i__main__
Person
p2871
(dp2872
g4
g5
(g6
g7
NtRp2873
(dp2874
g10
L50356994160359090374699790915591533084L
sbsg11
I28
sg12
I01
sg13
(lp2875
sg15
(lp2876
sg17
(dp2877
g19
I36
ssg20
(lp2878
sg22
I63
sba(i__main__
Person
p2879
(dp2880
g4
g5
(g6
g7
NtRp2881
(dp2882
g10
L50356994239587252890085243341374026268L
sbsg11
I25
sg12
I01
sg13
(lp2883
sg15
(lp2884
sg17
(dp2885
g19
I61
ssg20
(lp2886
sg22
I83
sba(i__main__
Person
p2887
(dp2888
g4
g5
(g6
g7
NtRp2889
(dp2890
g10
L50356994318815415402007146178731897372L
sbsg11
I27
sg12
I01
sg13
(lp2891
sg15
(lp2892
sg17
(dp2893
g19
I38
ssg20
(lp2894
sg22
I88
sba(i__main__
Person
p2895
(dp2896
g4
g5
(g6
g7
NtRp2897
(dp2898
g10
L50357785253561795304323739009305604636L
sbsg11
I20
sg12
I01
sg13
(lp2899
sg15
(lp2900
sg17
(dp2901
g19
I86
ssg20
(lp2902
sg22
I96
sba(i__main__
Person
p2903
(dp2904
g4
g5
(g6
g7
NtRp2905
(dp2906
g10
L50357785332789957820813136293747290652L
sbsg11
I22
sg12
I01
sg13
(lp2907
sg15
(lp2908
sg17
(dp2909
g19
I69
ssg20
(lp2910
sg22
I66
sba(i__main__
Person
p2911
(dp2912
g4
g5
(g6
g7
NtRp2913
(dp2914
g10
L50357785412018120333992106377094951452L
sbsg11
I27
sg12
I01
sg13
(lp2915
sg15
(lp2916
sg17
(dp2917
g19
I44
ssg20
(lp2918
sg22
I55
sba(i__main__
Person
p2919
(dp2920
g4
g5
(g6
g7
NtRp2921
(dp2922
g10
L50357785491246282846919437831263285788L
sbsg11
I24
sg12
I01
sg13
(lp2923
sg15
(lp2924
sg17
(dp2925
g19
I44
ssg20
(lp2926
sg22
I56
sba(i__main__
Person
p2927
(dp2928
g4
g5
(g6
g7
NtRp2929
(dp2930
g10
L50357785570474445362121087097253720604L
sbsg11
I29
sg12
I01
sg13
(lp2931
sg15
(lp2932
sg17
(dp2933
g19
I53
ssg20
(lp2934
sg22
I78
sba(i__main__
Person
p2935
(dp2936
g4
g5
(g6
g7
NtRp2937
(dp2938
g10
L50357785649702607877445177978113290780L
sbsg11
I29
sg12
I01
sg13
(lp2939
sg15
(lp2940
sg17
(dp2941
g19
I47
ssg20
(lp2942
sg22
I66
sba(i__main__
Person
p2943
(dp2944
g4
g5
(g6
g7
NtRp2945
(dp2946
g10
L50357785728930770389950859917169062428L
sbsg11
I29
sg12
I01
sg13
(lp2947
sg15
(lp2948
sg17
(dp2949
g19
I47
ssg20
(lp2950
sg22
I92
sba(i__main__
Person
p2951
(dp2952
g4
g5
(g6
g7
NtRp2953
(dp2954
g10
L50357785808158932902541547299191452188L
sbsg11
I21
sg12
I01
sg13
(lp2955
sg15
(lp2956
sg17
(dp2957
g19
I40
ssg20
(lp2958
sg22
I80
sba(i__main__
Person
p2959
(dp2960
g4
g5
(g6
g7
NtRp2961
(dp2962
g10
L50357785887387095419857073640278913564L
sbsg11
I26
sg12
I01
sg13
(lp2963
sg15
(lp2964
sg17
(dp2965
g19
I82
ssg20
(lp2966
sg22
I89
sba(i__main__
Person
p2967
(dp2968
g4
g5
(g6
g7
NtRp2969
(dp2970
g10
L50357785966615257933380006145166995996L
sbsg11
I21
sg12
I01
sg13
(lp2971
sg15
(lp2972
sg17
(dp2973
g19
I33
ssg20
(lp2974
sg22
I88
sba(i__main__
Person
p2975
(dp2976
g4
g5
(g6
g7
NtRp2977
(dp2978
g10
L50357786045843420444871533743134274076L
sbsg11
I18
sg12
I01
sg13
(lp2979
sg15
(lp2980
sg17
(dp2981
g19
I36
ssg20
(lp2982
sg22
I95
sba(i__main__
Person
p2983
(dp2984
g4
g5
(g6
g7
NtRp2985
(dp2986
g10
L50357786125071582962893280800788771356L
sbsg11
I30
sg12
I01
sg13
(lp2987
sg15
(lp2988
sg17
(dp2989
g19
I94
ssg20
(lp2990
sg22
I89
sba(i__main__
Person
p2991
(dp2992
g4
g5
(g6
g7
NtRp2993
(dp2994
g10
L50357786204299745474912292505111818780L
sbsg11
I20
sg12
I01
sg13
(lp2995
sg15
(lp2996
sg17
(dp2997
g19
I69
ssg20
(lp2998
sg22
I62
sba(i__main__
Person
p2999
(dp3000
g4
g5
(g6
g7
NtRp3001
(dp3002
g10
L50357786283527907987719152669247992348L
sbsg11
I24
sg12
I01
sg13
(lp3003
sg15
(lp3004
sg17
(dp3005
g19
I92
ssg20
(lp3006
sg22
I71
sba(i__main__
Person
p3007
(dp3008
g4
g5
(g6
g7
NtRp3009
(dp3010
g10
L50357786362756070505345145909647307292L
sbsg11
I19
sg12
I01
sg13
(lp3011
sg15
(lp3012
sg17
(dp3013
g19
I72
ssg20
(lp3014
sg22
I79
sba(i__main__
Person
p3015
(dp3016
g4
g5
(g6
g7
NtRp3017
(dp3018
g10
L50357786441984233017865464547492033052L
sbsg11
I27
sg12
I01
sg13
(lp3019
sg15
(lp3020
sg17
(dp3021
g19
I54
ssg20
(lp3022
sg22
I84
sba(i__main__
Person
p3023
(dp3024
g4
g5
(g6
g7
NtRp3025
(dp3026
g10
L50357786521212395533668344363736429084L
sbsg11
I24
sg12
I01
sg13
(lp3027
sg15
(lp3028
sg17
(dp3029
g19
I78
ssg20
(lp3030
sg22
I96
sba(i__main__
Person
p3031
(dp3032
g4
g5
(g6
g7
NtRp3033
(dp3034
g10
L50357786600440558044656031753391632924L
sbsg11
I25
sg12
I01
sg13
(lp3035
sg15
(lp3036
sg17
(dp3037
g19
I43
ssg20
(lp3038
sg22
I73
sba(i__main__
Person
p3039
(dp3040
g4
g5
(g6
g7
NtRp3041
(dp3042
g10
L50358577614415100461380795890608435740L
sbsg11
I22
sg12
I01
sg13
(lp3043
sg15
(lp3044
sg17
(dp3045
g19
I80
ssg20
(lp3046
sg22
I76
sba(i__main__
Person
p3047
(dp3048
g4
g5
(g6
g7
NtRp3049
(dp3050
g10
L50358577693643262976387101522761675292L
sbsg11
I23
sg12
I01
sg13
(lp3051
sg15
(lp3052
sg17
(dp3053
g19
I40
ssg20
(lp3054
sg22
I100
sba(i__main__
Person
p3055
(dp3056
g4
g5
(g6
g7
NtRp3057
(dp3058
g10
L50358577772871425489596752378570797596L
sbsg11
I23
sg12
I01
sg13
(lp3059
sg15
(lp3060
sg17
(dp3061
g19
I41
ssg20
(lp3062
sg22
I80
sba(i__main__
Person
p3063
(dp3064
g4
g5
(g6
g7
NtRp3065
(dp3066
g10
L50358577852099588006328218142983647772L
sbsg11
I22
sg12
I01
sg13
(lp3067
sg15
(lp3068
sg17
(dp3069
g19
I51
ssg20
(lp3070
sg22
I83
sba(i__main__
Person
p3071
(dp3072
g4
g5
(g6
g7
NtRp3073
(dp3074
g10
L50358577931327750519470596479358923292L
sbsg11
I23
sg12
I01
sg13
(lp3075
sg15
(lp3076
sg17
(dp3077
g19
I61
ssg20
(lp3078
sg22
I50
sba(i__main__
Person
p3079
(dp3080
g4
g5
(g6
g7
NtRp3081
(dp3082
g10
L50358578010555913033363668578621518364L
sbsg11
I30
sg12
I01
sg13
(lp3083
sg15
(lp3084
sg17
(dp3085
g19
I58
ssg20
(lp3086
sg22
I63
sba(i__main__
Person
p3087
(dp3088
g4
g5
(g6
g7
NtRp3089
(dp3090
g10
L50358578089784075549147126621472879132L
sbsg11
I24
sg12
I01
sg13
(lp3091
sg15
(lp3092
sg17
(dp3093
g19
I40
ssg20
(lp3094
sg22
I98
sba(i__main__
Person
p3095
(dp3096
g4
g5
(g6
g7
NtRp3097
(dp3098
g10
L50358578169012238059828850711443599900L
sbsg11
I30
sg12
I01
sg13
(lp3099
sg15
(lp3100
sg17
(dp3101
g19
I57
ssg20
(lp3102
sg22
I94
sba(i__main__
Person
p3103
(dp3104
g4
g5
(g6
g7
NtRp3105
(dp3106
g10
L50358578248240400576310648171514098204L
sbsg11
I20
sg12
I01
sg13
(lp3107
sg15
(lp3108
sg17
(dp3109
g19
I90
ssg20
(lp3110
sg22
I73
sba(i__main__
Person
p3111
(dp3112
g4
g5
(g6
g7
NtRp3113
(dp3114
g10
L50358578327468563089949266891830260252L
sbsg11
I30
sg12
I01
sg13
(lp3115
sg15
(lp3116
sg17
(dp3117
g19
I91
ssg20
(lp3118
sg22
I78
sba(i__main__
Person
p3119
(dp3120
g4
g5
(g6
g7
NtRp3121
(dp3122
g10
L50358578406696725604416829418559304220L
sbsg11
I18
sg12
I01
sg13
(lp3123
sg15
(lp3124
sg17
(dp3125
g19
I80
ssg20
(lp3126
sg22
I53
sba(i__main__
Person
p3127
(dp3128
g4
g5
(g6
g7
NtRp3129
(dp3130
g10
L50358578485924888120534116783789503004L
sbsg11
I30
sg12
I01
sg13
(lp3131
sg15
(lp3132
sg17
(dp3133
g19
I33
ssg20
(lp3134
sg22
I67
sba(i__main__
Person
p3135
(dp3136
g4
g5
(g6
g7
NtRp3137
(dp3138
g10
L50358578565153050634171046654245401116L
sbsg11
I26
sg12
I01
sg13
(lp3139
sg15
(lp3140
sg17
(dp3141
g19
I80
ssg20
(lp3142
sg22
I94
sba(i__main__
Person
p3143
(dp3144
g4
g5
(g6
g7
NtRp3145
(dp3146
g10
L50358578644381213148386689076818407964L
sbsg11
I20
sg12
I01
sg13
(lp3147
sg15
(lp3148
sg17
(dp3149
g19
I54
ssg20
(lp3150
sg22
I79
sba(i__main__
Person
p3151
(dp3152
g4
g5
(g6
g7
NtRp3153
(dp3154
g10
L50358578723609375660984694808235274780L
sbsg11
I22
sg12
I01
sg13
(lp3155
sg15
(lp3156
sg17
(dp3157
g19
I60
ssg20
(lp3158
sg22
I99
sba(i__main__
Person
p3159
(dp3160
g4
g5
(g6
g7
NtRp3161
(dp3162
g10
L50358578802837538176233913345289810460L
sbsg11
I22
sg12
I01
sg13
(lp3163
sg15
(lp3164
sg17
(dp3165
g19
I68
ssg20
(lp3166
sg22
I65
sba(i__main__
Person
p3167
(dp3168
g4
g5
(g6
g7
NtRp3169
(dp3170
g10
L50358578882065700689785274822825669148L
sbsg11
I20
sg12
I01
sg13
(lp3171
sg15
(lp3172
sg17
(dp3173
g19
I94
ssg20
(lp3174
sg22
I88
sba(i__main__
Person
p3175
(dp3176
g4
g5
(g6
g7
NtRp3177
(dp3178
g10
L50358578961293863204128706884825313820L
sbsg11
I30
sg12
I01
sg13
(lp3179
sg15
(lp3180
sg17
(dp3181
g19
I100
ssg20
(lp3182
sg22
I68
sba(i__main__
Person
p3183
(dp3184
g4
g5
(g6
g7
NtRp3185
(dp3186
g10
L50359369658355755560210410919549268508L
sbsg11
I30
sg12
I01
sg13
(lp3187
sg15
(lp3188
sg17
(dp3189
g19
I37
ssg20
(lp3190
sg22
I69
sba(i__main__
Person
p3191
(dp3192
g4
g5
(g6
g7
NtRp3193
(dp3194
g10
L50359369737583918074489948161835594268L
sbsg11
I27
sg12
I01
sg13
(lp3195
sg15
(lp3196
sg17
(dp3197
g19
I40
ssg20
(lp3198
sg22
I82
sba(i__main__
Person
p3199
(dp3200
g4
g5
(g6
g7
NtRp3201
(dp3202
g10
L50359369816812080593253100308145959452L
sbsg11
I24
sg12
I01
sg13
(lp3203
sg15
(lp3204
sg17
(dp3205
g19
I93
ssg20
(lp3206
sg22
I67
sba(i__main__
Person
p3207
(dp3208
g4
g5
(g6
g7
NtRp3209
(dp3210
g10
L50359369896040243107553466698708873756L
sbsg11
I21
sg12
I01
sg13
(lp3211
sg15
(lp3212
sg17
(dp3213
g19
I61
ssg20
(lp3214
sg22
I71
sba(i__main__
Person
p3215
(dp3216
g4
g5
(g6
g7
NtRp3217
(dp3218
g10
L50359369975268405620020305090978574876L
sbsg11
I27
sg12
I01
sg13
(lp3219
sg15
(lp3220
sg17
(dp3221
g19
I22
ssg20
(lp3222
sg22
I87
sba(i__main__
Person
p3223
(dp3224
g4
g5
(g6
g7
NtRp3225
(dp3226
g10
L50359370054496568135280219677148115484L
sbsg11
I20
sg12
I01
sg13
(lp3227
sg15
(lp3228
sg17
(dp3229
g19
I72
ssg20
(lp3230
sg22
I68
sba(i__main__
Person
p3231
(dp3232
g4
g5
(g6
g7
NtRp3233
(dp3234
g10
L50359370133724730647717221721886487068L
sbsg11
I30
sg12
I01
sg13
(lp3235
sg15
(lp3236
sg17
(dp3237
g19
I76
ssg20
(lp3238
sg22
I77
sba(i__main__
Person
p3239
(dp3240
g4
g5
(g6
g7
NtRp3241
(dp3242
g10
L50359370212952893161413261337451622940L
sbsg11
I19
sg12
I01
sg13
(lp3243
sg15
(lp3244
sg17
(dp3245
g19
I89
ssg20
(lp3246
sg22
I55
sba(i__main__
Person
p3247
(dp3248
g4
g5
(g6
g7
NtRp3249
(dp3250
g10
L50359370292181055677771772757722853916L
sbsg11
I18
sg12
I01
sg13
(lp3251
sg15
(lp3252
sg17
(dp3253
g19
I41
ssg20
(lp3254
sg22
I68
sba(i__main__
Person
p3255
(dp3256
g4
g5
(g6
g7
NtRp3257
(dp3258
g10
L50359370371409218192757249241599504924L
sbsg11
I18
sg12
I01
sg13
(lp3259
sg15
(lp3260
sg17
(dp3261
g19
I70
ssg20
(lp3262
sg22
I83
sba(i__main__
Person
p3263
(dp3264
g4
g5
(g6
g7
NtRp3265
(dp3266
g10
L50359370450637380707082385430112956956L
sbsg11
I19
sg12
I01
sg13
(lp3267
sg15
(lp3268
sg17
(dp3269
g19
I14
ssg20
(lp3270
sg22
I54
sba(i__main__
Person
p3271
(dp3272
g4
g5
(g6
g7
NtRp3273
(dp3274
g10
L50359370529865543221390351645047058972L
sbsg11
I19
sg12
I01
sg13
(lp3275
sg15
(lp3276
sg17
(dp3277
g19
I39
ssg20
(lp3278
sg22
I93
sba(i__main__
Person
p3279
(dp3280
g4
g5
(g6
g7
NtRp3281
(dp3282
g10
L50359370609093705733049075379180466716L
sbsg11
I25
sg12
I01
sg13
(lp3283
sg15
(lp3284
sg17
(dp3285
g19
I93
ssg20
(lp3286
sg22
I61
sba(i__main__
Person
p3287
(dp3288
g4
g5
(g6
g7
NtRp3289
(dp3290
g10
L50359370688321868245790351873743057436L
sbsg11
I18
sg12
I01
sg13
(lp3291
sg15
(lp3292
sg17
(dp3293
g19
I70
ssg20
(lp3294
sg22
I50
sba(i__main__
Person
p3295
(dp3296
g4
g5
(g6
g7
NtRp3297
(dp3298
g10
L50359370767550030762531106312387359260L
sbsg11
I27
sg12
I01
sg13
(lp3299
sg15
(lp3300
sg17
(dp3301
g19
I77
ssg20
(lp3302
sg22
I50
sba(i__main__
Person
p3303
(dp3304
g4
g5
(g6
g7
NtRp3305
(dp3306
g10
L50359370846778193276189428281073267228L
sbsg11
I27
sg12
I01
sg13
(lp3307
sg15
(lp3308
sg17
(dp3309
g19
I27
ssg20
(lp3310
sg22
I87
sba(i__main__
Person
p3311
(dp3312
g4
g5
(g6
g7
NtRp3313
(dp3314
g10
L50359370926006355790582399938973987356L
sbsg11
I26
sg12
I01
sg13
(lp3315
sg15
(lp3316
sg17
(dp3317
g19
I92
ssg20
(lp3318
sg22
I60
sba(i__main__
Person
p3319
(dp3320
g4
g5
(g6
g7
NtRp3321
(dp3322
g10
L50359371005234518306362480282104820252L
sbsg11
I23
sg12
I01
sg13
(lp3323
sg15
(lp3324
sg17
(dp3325
g19
I8
ssg20
(lp3326
sg22
I81
sba(i__main__
Person
p3327
(dp3328
g4
g5
(g6
g7
NtRp3329
(dp3330
g10
L50360161939980898207154604638813614620L
sbsg11
I18
sg12
I01
sg13
(lp3331
sg15
(lp3332
sg17
(dp3333
g19
I15
ssg20
(lp3334
sg22
I62
sba(i__main__
Person
p3335
(dp3336
g4
g5
(g6
g7
NtRp3337
(dp3338
g10
L50360162019209060721529280423228142108L
sbsg11
I18
sg12
I01
sg13
(lp3339
sg15
(lp3340
sg17
(dp3341
g19
I22
ssg20
(lp3342
sg22
I71
sba(i__main__
Person
p3343
(dp3344
g4
g5
(g6
g7
NtRp3345
(dp3346
g10
L50360162098437223233341689494645568028L
sbsg11
I30
sg12
I01
sg13
(lp3347
sg15
(lp3348
sg17
(dp3349
g19
I6
ssg20
(lp3350
sg22
I67
sba(i__main__
Person
p3351
(dp3352
g4
g5
(g6
g7
NtRp3353
(dp3354
g10
L50360162177665385747446430776394576412L
sbsg11
I30
sg12
I01
sg13
(lp3355
sg15
(lp3356
sg17
(dp3357
g19
I13
ssg20
(lp3358
sg22
I57
sba(i__main__
Person
p3359
(dp3360
g4
g5
(g6
g7
NtRp3361
(dp3362
g10
L50360162256893548261409027194904703516L
sbsg11
I26
sg12
I01
sg13
(lp3363
sg15
(lp3364
sg17
(dp3365
g19
I39
ssg20
(lp3366
sg22
I98
sba(i__main__
Person
p3367
(dp3368
g4
g5
(g6
g7
NtRp3369
(dp3370
g10
L50360162336121710778757204633290600988L
sbsg11
I24
sg12
I01
sg13
(lp3371
sg15
(lp3372
sg17
(dp3373
g19
I67
ssg20
(lp3374
sg22
I85
sba(i__main__
Person
p3375
(dp3376
g4
g5
(g6
g7
NtRp3377
(dp3378
g10
L50360162415349873293711155919775658524L
sbsg11
I19
sg12
I01
sg13
(lp3379
sg15
(lp3380
sg17
(dp3381
g19
I11
ssg20
(lp3382
sg22
I68
sba(i__main__
Person
p3383
(dp3384
g4
g5
(g6
g7
NtRp3385
(dp3386
g10
L50360162494578035804120130757313753628L
sbsg11
I30
sg12
I01
sg13
(lp3387
sg15
(lp3388
sg17
(dp3389
g19
I74
ssg20
(lp3390
sg22
I53
sba(i__main__
Person
p3391
(dp3392
g4
g5
(g6
g7
NtRp3393
(dp3394
g10
L50360162573806198319026794247711420956L
sbsg11
I18
sg12
I01
sg13
(lp3395
sg15
(lp3396
sg17
(dp3397
g19
I34
ssg20
(lp3398
sg22
I98
sba(i__main__
Person
p3399
(dp3400
g4
g5
(g6
g7
NtRp3401
(dp3402
g10
L50360162653034360833754439652921111068L
sbsg11
I29
sg12
I01
sg13
(lp3403
sg15
(lp3404
sg17
(dp3405
g19
I24
ssg20
(lp3406
sg22
I73
sba(i__main__
Person
p3407
(dp3408
g4
g5
(g6
g7
NtRp3409
(dp3410
g10
L50360162732262523349729300679935717916L
sbsg11
I25
sg12
I01
sg13
(lp3411
sg15
(lp3412
sg17
(dp3413
g19
I78
ssg20
(lp3414
sg22
I54
sba(i__main__
Person
p3415
(dp3416
g4
g5
(g6
g7
NtRp3417
(dp3418
g10
L50360162811490685863928899028836217372L
sbsg11
I20
sg12
I01
sg13
(lp3419
sg15
(lp3420
sg17
(dp3421
g19
I73
ssg20
(lp3422
sg22
I77
sba(i__main__
Person
p3423
(dp3424
g4
g5
(g6
g7
NtRp3425
(dp3426
g10
L50360162890718848375035931808616739356L
sbsg11
I26
sg12
I01
sg13
(lp3427
sg15
(lp3428
sg17
(dp3429
g19
I27
ssg20
(lp3430
sg22
I52
sba(i__main__
Person
p3431
(dp3432
g4
g5
(g6
g7
NtRp3433
(dp3434
g10
L50360162969947010889500398110601966108L
sbsg11
I19
sg12
I01
sg13
(lp3435
sg15
(lp3436
sg17
(dp3437
g19
I76
ssg20
(lp3438
sg22
I62
sba(i__main__
Person
p3439
(dp3440
g4
g5
(g6
g7
NtRp3441
(dp3442
g10
L50360163049175173403964019987657060892L
sbsg11
I21
sg12
I01
sg13
(lp3443
sg15
(lp3444
sg17
(dp3445
g19
I51
ssg20
(lp3446
sg22
I91
sba(i__main__
Person
p3447
(dp3448
g4
g5
(g6
g7
NtRp3449
(dp3450
g10
L50360163128403335920813986717265097244L
sbsg11
I19
sg12
I01
sg13
(lp3451
sg15
(lp3452
sg17
(dp3453
g19
I16
ssg20
(lp3454
sg22
I89
sba(i__main__
Person
p3455
(dp3456
g4
g5
(g6
g7
NtRp3457
(dp3458
g10
L50360954380062365878888922904494928412L
sbsg11
I24
sg12
I01
sg13
(lp3459
sg15
(lp3460
sg17
(dp3461
g19
I89
ssg20
(lp3462
sg22
I75
sba(i__main__
Person
p3463
(dp3464
g4
g5
(g6
g7
NtRp3465
(dp3466
g10
L50360954459290528390387487376879972892L
sbsg11
I29
sg12
I01
sg13
(lp3467
sg15
(lp3468
sg17
(dp3469
g19
I87
ssg20
(lp3470
sg22
I86
sba(i__main__
Person
p3471
(dp3472
g4
g5
(g6
g7
NtRp3473
(dp3474
g10
L50360954538518690905940135938828595740L
sbsg11
I24
sg12
I01
sg13
(lp3475
sg15
(lp3476
sg17
(dp3477
g19
I69
ssg20
(lp3478
sg22
I67
sba(i__main__
Person
p3479
(dp3480
g4
g5
(g6
g7
NtRp3481
(dp3482
g10
L50360954617746853422609677208365101596L
sbsg11
I18
sg12
I01
sg13
(lp3483
sg15
(lp3484
sg17
(dp3485
g19
I64
ssg20
(lp3486
sg22
I69
sba(i__main__
Person
p3487
(dp3488
g4
g5
(g6
g7
NtRp3489
(dp3490
g10
L50360954696975015935830587063242650140L
sbsg11
I25
sg12
I01
sg13
(lp3491
sg15
(lp3492
sg17
(dp3493
g19
I49
ssg20
(lp3494
sg22
I76
sba(i__main__
Person
p3495
(dp3496
g4
g5
(g6
g7
NtRp3497
(dp3498
g10
L50360954776203178448430563119496491548L
sbsg11
I18
sg12
I01
sg13
(lp3499
sg15
(lp3500
sg17
(dp3501
g19
I25
ssg20
(lp3502
sg22
I60
sba(i__main__
Person
p3503
(dp3504
g4
g5
(g6
g7
NtRp3505
(dp3506
g10
L50360954855431340961321865776645861916L
sbsg11
I18
sg12
I01
sg13
(lp3507
sg15
(lp3508
sg17
(dp3509
g19
I53
ssg20
(lp3510
sg22
I52
sba(i__main__
Person
p3511
(dp3512
g4
g5
(g6
g7
NtRp3513
(dp3514
g10
L50360954934659503476329297308705944092L
sbsg11
I21
sg12
I01
sg13
(lp3515
sg15
(lp3516
sg17
(dp3517
g19
I16
ssg20
(lp3518
sg22
I94
sba(i__main__
Person
p3519
(dp3520
g4
g5
(g6
g7
NtRp3521
(dp3522
g10
L50360955013887665989616635258087207452L
sbsg11
I19
sg12
I01
sg13
(lp3523
sg15
(lp3524
sg17
(dp3525
g19
I50
ssg20
(lp3526
sg22
I68
sba(i__main__
Person
p3527
(dp3528
g4
g5
(g6
g7
NtRp3529
(dp3530
g10
L50360955093115828503971044844178567708L
sbsg11
I24
sg12
I01
sg13
(lp3531
sg15
(lp3532
sg17
(dp3533
g19
I34
ssg20
(lp3534
sg22
I60
sba(i__main__
Person
p3535
(dp3536
g4
g5
(g6
g7
NtRp3537
(dp3538
g10
L50360955172343991021409575750088585756L
sbsg11
I24
sg12
I01
sg13
(lp3539
sg15
(lp3540
sg17
(dp3541
g19
I89
ssg20
(lp3542
sg22
I72
sba(i__main__
Person
p3543
(dp3544
g4
g5
(g6
g7
NtRp3545
(dp3546
g10
L50360955251572153532839741803132940828L
sbsg11
I25
sg12
I01
sg13
(lp3547
sg15
(lp3548
sg17
(dp3549
g19
I1
ssg20
(lp3550
sg22
I67
sba(i__main__
Person
p3551
(dp3552
g4
g5
(g6
g7
NtRp3553
(dp3554
g10
L50360955330800316049340961036596474396L
sbsg11
I26
sg12
I01
sg13
(lp3555
sg15
(lp3556
sg17
(dp3557
g19
I14
ssg20
(lp3558
sg22
I69
sba(i__main__
Person
p3559
(dp3560
g4
g5
(g6
g7
NtRp3561
(dp3562
g10
L50360955410028478564738798361354236444L
sbsg11
I20
sg12
I01
sg13
(lp3563
sg15
(lp3564
sg17
(dp3565
g19
I89
ssg20
(lp3566
sg22
I86
sba(i__main__
Person
p3567
(dp3568
g4
g5
(g6
g7
NtRp3569
(dp3570
g10
L50360955489256641078311833412096815644L
sbsg11
I20
sg12
I01
sg13
(lp3571
sg15
(lp3572
sg17
(dp3573
g19
I93
ssg20
(lp3574
sg22
I95
sba(i__main__
Person
p3575
(dp3576
g4
g5
(g6
g7
NtRp3577
(dp3578
g10
L50360955568484803591177803321342226972L
sbsg11
I28
sg12
I01
sg13
(lp3579
sg15
(lp3580
sg17
(dp3581
g19
I10
ssg20
(lp3582
sg22
I68
sba(i__main__
Person
p3583
(dp3584
g4
g5
(g6
g7
NtRp3585
(dp3586
g10
L50360955647712966105389505094241284636L
sbsg11
I23
sg12
I01
sg13
(lp3587
sg15
(lp3588
sg17
(dp3589
g19
I60
ssg20
(lp3590
sg22
I76
sba(i__main__
Person
p3591
(dp3592
g4
g5
(g6
g7
NtRp3593
(dp3594
g10
L50360955726941128619739411080705274396L
sbsg11
I27
sg12
I01
sg13
(lp3595
sg15
(lp3596
sg17
(dp3597
g19
I40
ssg20
(lp3598
sg22
I59
sba(i__main__
Person
p3599
(dp3600
g4
g5
(g6
g7
NtRp3601
(dp3602
g10
L50360955806169291135727782906601992732L
sbsg11
I20
sg12
I01
sg13
(lp3603
sg15
(lp3604
sg17
(dp3605
g19
I50
ssg20
(lp3606
sg22
I98
sba(i__main__
Person
p3607
(dp3608
g4
g5
(g6
g7
NtRp3609
(dp3610
g10
L50361746582459346006110416281842283036L
sbsg11
I24
sg12
I01
sg13
(lp3611
sg15
(lp3612
sg17
(dp3613
g19
I14
ssg20
(lp3614
sg22
I82
sba(i__main__
Person
p3615
(dp3616
g4
g5
(g6
g7
NtRp3617
(dp3618
g10
L50361746661687508520046554052541608476L
sbsg11
I25
sg12
I01
sg13
(lp3619
sg15
(lp3620
sg17
(dp3621
g19
I14
ssg20
(lp3622
sg22
I75
sba(i__main__
Person
p3623
(dp3624
g4
g5
(g6
g7
NtRp3625
(dp3626
g10
L50361746740915671035960897959563424284L
sbsg11
I28
sg12
I01
sg13
(lp3627
sg15
(lp3628
sg17
(dp3629
g19
I58
ssg20
(lp3630
sg22
I93
sba(i__main__
Person
p3631
(dp3632
g4
g5
(g6
g7
NtRp3633
(dp3634
g10
L50361746820143833551116666804350022172L
sbsg11
I26
sg12
I01
sg13
(lp3635
sg15
(lp3636
sg17
(dp3637
g19
I44
ssg20
(lp3638
sg22
I65
sba(i__main__
Person
p3639
(dp3640
g4
g5
(g6
g7
NtRp3641
(dp3642
g10
L50361746899371996061676230754428318236L
sbsg11
I22
sg12
I01
sg13
(lp3643
sg15
(lp3644
sg17
(dp3645
g19
I85
ssg20
(lp3646
sg22
I51
sba(i__main__
Person
p3647
(dp3648
g4
g5
(g6
g7
NtRp3649
(dp3650
g10
L50361746978600158578512405210177532444L
sbsg11
I22
sg12
I01
sg13
(lp3651
sg15
(lp3652
sg17
(dp3653
g19
I99
ssg20
(lp3654
sg22
I67
sba(i__main__
Person
p3655
(dp3656
g4
g5
(g6
g7
NtRp3657
(dp3658
g10
L50361747057828321094748756490556338716L
sbsg11
I29
sg12
I01
sg13
(lp3659
sg15
(lp3660
sg17
(dp3661
g19
I67
ssg20
(lp3662
sg22
I99
sba(i__main__
Person
p3663
(dp3664
g4
g5
(g6
g7
NtRp3665
(dp3666
g10
L50361747137056483604942684445887492636L
sbsg11
I20
sg12
I01
sg13
(lp3667
sg15
(lp3668
sg17
(dp3669
g19
I16
ssg20
(lp3670
sg22
I57
sba(i__main__
Person
p3671
(dp3672
g4
g5
(g6
g7
NtRp3673
(dp3674
g10
L50361747216284646119771660842713018908L
sbsg11
I30
sg12
I01
sg13
(lp3675
sg15
(lp3676
sg17
(dp3677
g19
I52
ssg20
(lp3678
sg22
I59
sba(i__main__
Person
p3679
(dp3680
g4
g5
(g6
g7
NtRp3681
(dp3682
g10
L50361747295512808633180033032079864348L
sbsg11
I24
sg12
I01
sg13
(lp3683
sg15
(lp3684
sg17
(dp3685
g19
I32
ssg20
(lp3686
sg22
I82
sba(i__main__
Person
p3687
(dp3688
g4
g5
(g6
g7
NtRp3689
(dp3690
g10
L50361747374740971150397887556248728092L
sbsg11
I30
sg12
I01
sg13
(lp3691
sg15
(lp3692
sg17
(dp3693
g19
I71
ssg20
(lp3694
sg22
I80
sba(i__main__
Person
p3695
(dp3696
g4
g5
(g6
g7
NtRp3697
(dp3698
g10
L50361747453969133662539622350417621532L
sbsg11
I19
sg12
I01
sg13
(lp3699
sg15
(lp3700
sg17
(dp3701
g19
I3
ssg20
(lp3702
sg22
I98
sba(i__main__
Person
p3703
(dp3704
g4
g5
(g6
g7
NtRp3705
(dp3706
g10
L50361747533197296178164047031427461660L
sbsg11
I22
sg12
I01
sg13
(lp3707
sg15
(lp3708
sg17
(dp3709
g19
I67
ssg20
(lp3710
sg22
I92
sba(i__main__
Person
p3711
(dp3712
g4
g5
(g6
g7
NtRp3713
(dp3714
g10
L50361747612425458690929811848963879452L
sbsg11
I30
sg12
I01
sg13
(lp3715
sg15
(lp3716
sg17
(dp3717
g19
I3
ssg20
(lp3718
sg22
I83
sba(i__main__
Person
p3719
(dp3720
g4
g5
(g6
g7
NtRp3721
(dp3722
g10
L50361747691653621207558539246877340188L
sbsg11
I23
sg12
I01
sg13
(lp3723
sg15
(lp3724
sg17
(dp3725
g19
I54
ssg20
(lp3726
sg22
I99
sba(i__main__
Person
p3727
(dp3728
g4
g5
(g6
g7
NtRp3729
(dp3730
g10
L50361747770881783722112796066433266204L
sbsg11
I30
sg12
I01
sg13
(lp3731
sg15
(lp3732
sg17
(dp3733
g19
I6
ssg20
(lp3734
sg22
I70
sba(i__main__
Person
p3735
(dp3736
g4
g5
(g6
g7
NtRp3737
(dp3738
g10
L50361747850109946233957011810218996252L
sbsg11
I23
sg12
I01
sg13
(lp3739
sg15
(lp3740
sg17
(dp3741
g19
I84
ssg20
(lp3742
sg22
I58
sba(i__main__
Person
p3743
(dp3744
g4
g5
(g6
g7
NtRp3745
(dp3746
g10
L50362538784856326136450652401143706140L
sbsg11
I30
sg12
I01
sg13
(lp3747
sg15
(lp3748
sg17
(dp3749
g19
I91
ssg20
(lp3750
sg22
I95
sba(i__main__
Person
p3751
(dp3752
g4
g5
(g6
g7
NtRp3753
(dp3754
g10
L50362538864084488650545260583731130908L
sbsg11
I21
sg12
I01
sg13
(lp3755
sg15
(lp3756
sg17
(dp3757
g19
I66
ssg20
(lp3758
sg22
I99
sba(i__main__
Person
p3759
(dp3760
g4
g5
(g6
g7
NtRp3761
(dp3762
g10
L50362538943312651164420318284484243996L
sbsg11
I21
sg12
I01
sg13
(lp3763
sg15
(lp3764
sg17
(dp3765
g19
I52
ssg20
(lp3766
sg22
I77
sba(i__main__
Person
p3767
(dp3768
g4
g5
(g6
g7
NtRp3769
(dp3770
g10
L50362539022540813679369765971341931036L
sbsg11
I21
sg12
I01
sg13
(lp3771
sg15
(lp3772
sg17
(dp3773
g19
I55
ssg20
(lp3774
sg22
I71
sba(i__main__
Person
p3775
(dp3776
g4
g5
(g6
g7
NtRp3777
(dp3778
g10
L50362539101768976191385118500967739932L
sbsg11
I20
sg12
I01
sg13
(lp3779
sg15
(lp3780
sg17
(dp3781
g19
I33
ssg20
(lp3782
sg22
I63
sba(i__main__
Person
p3783
(dp3784
g4
g5
(g6
g7
NtRp3785
(dp3786
g10
L50362539180997138709330585839933649436L
sbsg11
I28
sg12
I01
sg13
(lp3787
sg15
(lp3788
sg17
(dp3789
g19
I62
ssg20
(lp3790
sg22
I93
sba(i__main__
Person
p3791
(dp3792
g4
g5
(g6
g7
NtRp3793
(dp3794
g10
L50362539260225301223040136254380896796L
sbsg11
I21
sg12
I01
sg13
(lp3795
sg15
(lp3796
sg17
(dp3797
g19
I91
ssg20
(lp3798
sg22
I99
sba(i__main__
Person
p3799
(dp3800
g4
g5
(g6
g7
NtRp3801
(dp3802
g10
L50362539339453463735110094929488572956L
sbsg11
I24
sg12
I01
sg13
(lp3803
sg15
(lp3804
sg17
(dp3805
g19
I45
ssg20
(lp3806
sg22
I81
sba(i__main__
Person
p3807
(dp3808
g4
g5
(g6
g7
NtRp3809
(dp3810
g10
L50362539418681626252288824431894655516L
sbsg11
I26
sg12
I01
sg13
(lp3811
sg15
(lp3812
sg17
(dp3813
g19
I86
ssg20
(lp3814
sg22
I51
sba(i__main__
Person
p3815
(dp3816
g4
g5
(g6
g7
NtRp3817
(dp3818
g10
L50362539497909788764243659841527673372L
sbsg11
I20
sg12
I01
sg13
(lp3819
sg15
(lp3820
sg17
(dp3821
g19
I18
ssg20
(lp3822
sg22
I64
sba(i__main__
Person
p3823
(dp3824
g4
g5
(g6
g7
NtRp3825
(dp3826
g10
L50362539577137951278050600597916807708L
sbsg11
I25
sg12
I01
sg13
(lp3827
sg15
(lp3828
sg17
(dp3829
g19
I55
ssg20
(lp3830
sg22
I86
sba(i__main__
Person
p3831
(dp3832
g4
g5
(g6
g7
NtRp3833
(dp3834
g10
L50362539656366113794352817022845907484L
sbsg11
I30
sg12
I01
sg13
(lp3835
sg15
(lp3836
sg17
(dp3837
g19
I17
ssg20
(lp3838
sg22
I69
sba(i__main__
Person
p3839
(dp3840
g4
g5
(g6
g7
NtRp3841
(dp3842
g10
L50362539735594276305818167447979094556L
sbsg11
I20
sg12
I01
sg13
(lp3843
sg15
(lp3844
sg17
(dp3845
g19
I20
ssg20
(lp3846
sg22
I55
sba(i__main__
Person
p3847
(dp3848
g4
g5
(g6
g7
NtRp3849
(dp3850
g10
L50362539814822438821132125229677081116L
sbsg11
I29
sg12
I01
sg13
(lp3851
sg15
(lp3852
sg17
(dp3853
g19
I44
ssg20
(lp3854
sg22
I90
sba(i__main__
Person
p3855
(dp3856
g4
g5
(g6
g7
NtRp3857
(dp3858
g10
L50362539894050601335406032972429193756L
sbsg11
I28
sg12
I01
sg13
(lp3859
sg15
(lp3860
sg17
(dp3861
g19
I21
ssg20
(lp3862
sg22
I60
sba(i__main__
Person
p3863
(dp3864
g4
g5
(g6
g7
NtRp3865
(dp3866
g10
L50362539973278763851603259231045218844L
sbsg11
I20
sg12
I01
sg13
(lp3867
sg15
(lp3868
sg17
(dp3869
g19
I63
ssg20
(lp3870
sg22
I52
sba(i__main__
Person
p3871
(dp3872
g4
g5
(g6
g7
NtRp3873
(dp3874
g10
L50362540052506926364318640027750429212L
sbsg11
I28
sg12
I01
sg13
(lp3875
sg15
(lp3876
sg17
(dp3877
g19
I21
ssg20
(lp3878
sg22
I81
sba(i__main__
Person
p3879
(dp3880
g4
g5
(g6
g7
NtRp3881
(dp3882
g10
L50362540131735088880350640475037299228L
sbsg11
I19
sg12
I01
sg13
(lp3883
sg15
(lp3884
sg17
(dp3885
g19
I8
ssg20
(lp3886
sg22
I97
sba(i__main__
Person
p3887
(dp3888
g4
g5
(g6
g7
NtRp3889
(dp3890
g10
L50363331224937793808349915003177464348L
sbsg11
I18
sg12
I01
sg13
(lp3891
sg15
(lp3892
sg17
(dp3893
g19
I63
ssg20
(lp3894
sg22
I52
sba(i__main__
Person
p3895
(dp3896
g4
g5
(g6
g7
NtRp3897
(dp3898
g10
L50363331304165956323612644339114111516L
sbsg11
I27
sg12
I01
sg13
(lp3899
sg15
(lp3900
sg17
(dp3901
g19
I36
ssg20
(lp3902
sg22
I55
sba(i__main__
Person
p3903
(dp3904
g4
g5
(g6
g7
NtRp3905
(dp3906
g10
L50363331383394118834381344196888424988L
sbsg11
I22
sg12
I01
sg13
(lp3907
sg15
(lp3908
sg17
(dp3909
g19
I30
ssg20
(lp3910
sg22
I77
sba(i__main__
Person
p3911
(dp3912
g4
g5
(g6
g7
NtRp3913
(dp3914
g10
L50363331462622281348697191711170425372L
sbsg11
I21
sg12
I01
sg13
(lp3915
sg15
(lp3916
sg17
(dp3917
g19
I57
ssg20
(lp3918
sg22
I92
sba(i__main__
Person
p3919
(dp3920
g4
g5
(g6
g7
NtRp3921
(dp3922
g10
L50363331541850443867226156676857524764L
sbsg11
I18
sg12
I01
sg13
(lp3923
sg15
(lp3924
sg17
(dp3925
g19
I7
ssg20
(lp3926
sg22
I78
sba(i__main__
Person
p3927
(dp3928
g4
g5
(g6
g7
NtRp3929
(dp3930
g10
L50363331621078606377644138713650360860L
sbsg11
I30
sg12
I01
sg13
(lp3931
sg15
(lp3932
sg17
(dp3933
g19
I60
ssg20
(lp3934
sg22
I77
sba(i__main__
Person
p3935
(dp3936
g4
g5
(g6
g7
NtRp3937
(dp3938
g10
L50363331700306768891517789039519920668L
sbsg11
I18
sg12
I01
sg13
(lp3939
sg15
(lp3940
sg17
(dp3941
g19
I20
ssg20
(lp3942
sg22
I94
sba(i__main__
Person
p3943
(dp3944
g4
g5
(g6
g7
NtRp3945
(dp3946
g10
L50363331779534931406383075708341121564L
sbsg11
I21
sg12
I01
sg13
(lp3947
sg15
(lp3948
sg17
(dp3949
g19
I19
ssg20
(lp3950
sg22
I57
sba(i__main__
Person
p3951
(dp3952
g4
g5
(g6
g7
NtRp3953
(dp3954
g10
L50363331858763093922046062461160321564L
sbsg11
I19
sg12
I01
sg13
(lp3955
sg15
(lp3956
sg17
(dp3957
g19
I70
ssg20
(lp3958
sg22
I90
sba(i__main__
Person
p3959
(dp3960
g4
g5
(g6
g7
NtRp3961
(dp3962
g10
L50363331937991256434391866613444440604L
sbsg11
I27
sg12
I01
sg13
(lp3963
sg15
(lp3964
sg17
(dp3965
g19
I96
ssg20
(lp3966
sg22
I82
sba(i__main__
Person
p3967
(dp3968
g4
g5
(g6
g7
NtRp3969
(dp3970
g10
L50363332017219418948512370493889245724L
sbsg11
I28
sg12
I01
sg13
(lp3971
sg15
(lp3972
sg17
(dp3973
g19
I3
ssg20
(lp3974
sg22
I84
sba(i__main__
Person
p3975
(dp3976
g4
g5
(g6
g7
NtRp3977
(dp3978
g10
L50363332096447581466818688752998216220L
sbsg11
I20
sg12
I01
sg13
(lp3979
sg15
(lp3980
sg17
(dp3981
g19
I90
ssg20
(lp3982
sg22
I90
sba(i__main__
Person
p3983
(dp3984
g4
g5
(g6
g7
NtRp3985
(dp3986
g10
L50363332175675743978948038648191840796L
sbsg11
I19
sg12
I01
sg13
(lp3987
sg15
(lp3988
sg17
(dp3989
g19
I73
ssg20
(lp3990
sg22
I51
sba(i__main__
Person
p3991
(dp3992
g4
g5
(g6
g7
NtRp3993
(dp3994
g10
L50363332254903906493105415750585741852L
sbsg11
I29
sg12
I01
sg13
(lp3995
sg15
(lp3996
sg17
(dp3997
g19
I62
ssg20
(lp3998
sg22
I93
sba(i__main__
Person
p3999
(dp4000
g4
g5
(g6
g7
NtRp4001
(dp4002
g10
L50363332334132069008145498379944260124L
sbsg11
I27
sg12
I01
sg13
(lp4003
sg15
(lp4004
sg17
(dp4005
g19
I95
ssg20
(lp4006
sg22
I81
sba(i__main__
Person
p4007
(dp4008
g4
g5
(g6
g7
NtRp4009
(dp4010
g10
L50363332413360231520672572417230041628L
sbsg11
I29
sg12
I01
sg13
(lp4011
sg15
(lp4012
sg17
(dp4013
g19
I32
ssg20
(lp4014
sg22
I76
sba.