(lp1
(ipersonsimulator
Person
p2
(dp3
S'personId'
p4
ccopy_reg
_reconstructor
p5
(cuuid
UUID
p6
c__builtin__
object
p7
NtRp8
(dp9
S'int'
p10
L187025916922349918342341801148461675036L
sbsS'age'
p11
I29
sS'alive'
p12
I01
sS'parents'
p13
(lp14
sS'partner'
p15
(lp16
sS'attributes'
p17
(dp18
S'health'
p19
I60
ssS'children'
p20
(lp21
sS'happiness'
p22
I57
sba.